ARM GAS  C:\Users\qqffx\AppData\Local\Temp\cca1jCli.s 			page 1


   1              		.cpu cortex-m7
   2              		.eabi_attribute 28, 1
   3              		.eabi_attribute 20, 1
   4              		.eabi_attribute 21, 1
   5              		.eabi_attribute 23, 3
   6              		.eabi_attribute 24, 1
   7              		.eabi_attribute 25, 1
   8              		.eabi_attribute 26, 1
   9              		.eabi_attribute 30, 1
  10              		.eabi_attribute 34, 1
  11              		.eabi_attribute 18, 4
  12              		.file	"usbd_conf.c"
  13              		.text
  14              	.Ltext0:
  15              		.cfi_sections	.debug_frame
  16              		.section	.text.HAL_PCD_MspInit,"ax",%progbits
  17              		.align	1
  18              		.global	HAL_PCD_MspInit
  19              		.syntax unified
  20              		.thumb
  21              		.thumb_func
  22              		.fpu fpv5-d16
  24              	HAL_PCD_MspInit:
  25              	.LFB137:
  26              		.file 1 "Src/usbd_conf.c"
   1:Src/usbd_conf.c **** /**
   2:Src/usbd_conf.c ****   ******************************************************************************
   3:Src/usbd_conf.c ****   * @file           : usbd_conf.c
   4:Src/usbd_conf.c ****   * @version        : v1.0_Cube
   5:Src/usbd_conf.c ****   * @brief          : This file implements the board support package for the USB device library
   6:Src/usbd_conf.c ****   ******************************************************************************
   7:Src/usbd_conf.c ****   * This notice applies to any and all portions of this file
   8:Src/usbd_conf.c ****   * that are not between comment pairs USER CODE BEGIN and
   9:Src/usbd_conf.c ****   * USER CODE END. Other portions of this file, whether 
  10:Src/usbd_conf.c ****   * inserted by the user or by software development tools
  11:Src/usbd_conf.c ****   * are owned by their respective copyright owners.
  12:Src/usbd_conf.c ****   *
  13:Src/usbd_conf.c ****   * Copyright (c) 2018 STMicroelectronics International N.V. 
  14:Src/usbd_conf.c ****   * All rights reserved.
  15:Src/usbd_conf.c ****   *
  16:Src/usbd_conf.c ****   * Redistribution and use in source and binary forms, with or without 
  17:Src/usbd_conf.c ****   * modification, are permitted, provided that the following conditions are met:
  18:Src/usbd_conf.c ****   *
  19:Src/usbd_conf.c ****   * 1. Redistribution of source code must retain the above copyright notice, 
  20:Src/usbd_conf.c ****   *    this list of conditions and the following disclaimer.
  21:Src/usbd_conf.c ****   * 2. Redistributions in binary form must reproduce the above copyright notice,
  22:Src/usbd_conf.c ****   *    this list of conditions and the following disclaimer in the documentation
  23:Src/usbd_conf.c ****   *    and/or other materials provided with the distribution.
  24:Src/usbd_conf.c ****   * 3. Neither the name of STMicroelectronics nor the names of other 
  25:Src/usbd_conf.c ****   *    contributors to this software may be used to endorse or promote products 
  26:Src/usbd_conf.c ****   *    derived from this software without specific written permission.
  27:Src/usbd_conf.c ****   * 4. This software, including modifications and/or derivative works of this 
  28:Src/usbd_conf.c ****   *    software, must execute solely and exclusively on microcontroller or
  29:Src/usbd_conf.c ****   *    microprocessor devices manufactured by or for STMicroelectronics.
  30:Src/usbd_conf.c ****   * 5. Redistribution and use of this software other than as permitted under 
  31:Src/usbd_conf.c ****   *    this license is void and will automatically terminate your rights under 
  32:Src/usbd_conf.c ****   *    this license. 
ARM GAS  C:\Users\qqffx\AppData\Local\Temp\cca1jCli.s 			page 2


  33:Src/usbd_conf.c ****   *
  34:Src/usbd_conf.c ****   * THIS SOFTWARE IS PROVIDED BY STMICROELECTRONICS AND CONTRIBUTORS "AS IS" 
  35:Src/usbd_conf.c ****   * AND ANY EXPRESS, IMPLIED OR STATUTORY WARRANTIES, INCLUDING, BUT NOT 
  36:Src/usbd_conf.c ****   * LIMITED TO, THE IMPLIED WARRANTIES OF MERCHANTABILITY, FITNESS FOR A 
  37:Src/usbd_conf.c ****   * PARTICULAR PURPOSE AND NON-INFRINGEMENT OF THIRD PARTY INTELLECTUAL PROPERTY
  38:Src/usbd_conf.c ****   * RIGHTS ARE DISCLAIMED TO THE FULLEST EXTENT PERMITTED BY LAW. IN NO EVENT 
  39:Src/usbd_conf.c ****   * SHALL STMICROELECTRONICS OR CONTRIBUTORS BE LIABLE FOR ANY DIRECT, INDIRECT,
  40:Src/usbd_conf.c ****   * INCIDENTAL, SPECIAL, EXEMPLARY, OR CONSEQUENTIAL DAMAGES (INCLUDING, BUT NOT
  41:Src/usbd_conf.c ****   * LIMITED TO, PROCUREMENT OF SUBSTITUTE GOODS OR SERVICES; LOSS OF USE, DATA, 
  42:Src/usbd_conf.c ****   * OR PROFITS; OR BUSINESS INTERRUPTION) HOWEVER CAUSED AND ON ANY THEORY OF 
  43:Src/usbd_conf.c ****   * LIABILITY, WHETHER IN CONTRACT, STRICT LIABILITY, OR TORT (INCLUDING 
  44:Src/usbd_conf.c ****   * NEGLIGENCE OR OTHERWISE) ARISING IN ANY WAY OUT OF THE USE OF THIS SOFTWARE,
  45:Src/usbd_conf.c ****   * EVEN IF ADVISED OF THE POSSIBILITY OF SUCH DAMAGE.
  46:Src/usbd_conf.c ****   *
  47:Src/usbd_conf.c ****   ******************************************************************************
  48:Src/usbd_conf.c ****   */
  49:Src/usbd_conf.c **** 
  50:Src/usbd_conf.c **** /* Includes ------------------------------------------------------------------*/
  51:Src/usbd_conf.c **** #include "stm32h7xx.h"
  52:Src/usbd_conf.c **** #include "stm32h7xx_hal.h"
  53:Src/usbd_conf.c **** #include "usbd_def.h"
  54:Src/usbd_conf.c **** #include "usbd_core.h"
  55:Src/usbd_conf.c **** 
  56:Src/usbd_conf.c **** /* USER CODE BEGIN Includes */
  57:Src/usbd_conf.c **** 
  58:Src/usbd_conf.c **** /* USER CODE END Includes */
  59:Src/usbd_conf.c **** 
  60:Src/usbd_conf.c **** /* Private typedef -----------------------------------------------------------*/
  61:Src/usbd_conf.c **** /* Private define ------------------------------------------------------------*/
  62:Src/usbd_conf.c **** /* Private macro -------------------------------------------------------------*/
  63:Src/usbd_conf.c **** 
  64:Src/usbd_conf.c **** /* USER CODE BEGIN PV */
  65:Src/usbd_conf.c **** /* Private variables ---------------------------------------------------------*/
  66:Src/usbd_conf.c **** 
  67:Src/usbd_conf.c **** /* USER CODE END PV */
  68:Src/usbd_conf.c **** 
  69:Src/usbd_conf.c ****                 PCD_HandleTypeDef hpcd_USB_OTG_FS;
  70:Src/usbd_conf.c **** void _Error_Handler(char * file, int line);
  71:Src/usbd_conf.c **** 
  72:Src/usbd_conf.c **** /* External functions --------------------------------------------------------*/
  73:Src/usbd_conf.c **** void SystemClock_Config(void);
  74:Src/usbd_conf.c **** 
  75:Src/usbd_conf.c **** /* USER CODE BEGIN 0 */
  76:Src/usbd_conf.c **** 
  77:Src/usbd_conf.c **** /* USER CODE END 0 */
  78:Src/usbd_conf.c **** 
  79:Src/usbd_conf.c **** /* USER CODE BEGIN PFP */
  80:Src/usbd_conf.c **** /* Private function prototypes -----------------------------------------------*/
  81:Src/usbd_conf.c **** 
  82:Src/usbd_conf.c **** /* USER CODE END PFP */
  83:Src/usbd_conf.c **** 
  84:Src/usbd_conf.c **** /* Private functions ---------------------------------------------------------*/
  85:Src/usbd_conf.c **** 
  86:Src/usbd_conf.c **** /* USER CODE BEGIN 1 */
  87:Src/usbd_conf.c **** 
  88:Src/usbd_conf.c **** /* USER CODE END 1 */
  89:Src/usbd_conf.c **** 
ARM GAS  C:\Users\qqffx\AppData\Local\Temp\cca1jCli.s 			page 3


  90:Src/usbd_conf.c **** /*******************************************************************************
  91:Src/usbd_conf.c ****                        LL Driver Callbacks (PCD -> USB Device Library)
  92:Src/usbd_conf.c **** *******************************************************************************/
  93:Src/usbd_conf.c **** /* MSP Init */
  94:Src/usbd_conf.c **** 
  95:Src/usbd_conf.c **** void HAL_PCD_MspInit(PCD_HandleTypeDef* pcdHandle)
  96:Src/usbd_conf.c **** {
  27              		.loc 1 96 0
  28              		.cfi_startproc
  29              		@ args = 0, pretend = 0, frame = 24
  30              		@ frame_needed = 0, uses_anonymous_args = 0
  31              	.LVL0:
  97:Src/usbd_conf.c ****   GPIO_InitTypeDef GPIO_InitStruct;
  98:Src/usbd_conf.c ****   if(pcdHandle->Instance==USB_OTG_FS)
  32              		.loc 1 98 0
  33 0000 0268     		ldr	r2, [r0]
  34 0002 1A4B     		ldr	r3, .L8
  35 0004 9A42     		cmp	r2, r3
  36 0006 00D0     		beq	.L7
  37 0008 7047     		bx	lr
  38              	.L7:
  96:Src/usbd_conf.c ****   GPIO_InitTypeDef GPIO_InitStruct;
  39              		.loc 1 96 0
  40 000a 30B5     		push	{r4, r5, lr}
  41              	.LCFI0:
  42              		.cfi_def_cfa_offset 12
  43              		.cfi_offset 4, -12
  44              		.cfi_offset 5, -8
  45              		.cfi_offset 14, -4
  46 000c 87B0     		sub	sp, sp, #28
  47              	.LCFI1:
  48              		.cfi_def_cfa_offset 40
  99:Src/usbd_conf.c ****   {
 100:Src/usbd_conf.c ****   /* USER CODE BEGIN USB_OTG_FS_MspInit 0 */
 101:Src/usbd_conf.c **** 
 102:Src/usbd_conf.c ****   /* USER CODE END USB_OTG_FS_MspInit 0 */
 103:Src/usbd_conf.c ****   
 104:Src/usbd_conf.c ****     /**USB_OTG_FS GPIO Configuration    
 105:Src/usbd_conf.c ****     PA8     ------> USB_OTG_FS_SOF
 106:Src/usbd_conf.c ****     PA9     ------> USB_OTG_FS_VBUS
 107:Src/usbd_conf.c ****     PA10     ------> USB_OTG_FS_ID
 108:Src/usbd_conf.c ****     PA11     ------> USB_OTG_FS_DM
 109:Src/usbd_conf.c ****     PA12     ------> USB_OTG_FS_DP 
 110:Src/usbd_conf.c ****     */
 111:Src/usbd_conf.c ****     GPIO_InitStruct.Pin = USB_SOF_Pin|USB_ID_Pin|USB_DM_Pin|USB_DP_Pin;
  49              		.loc 1 111 0
  50 000e 4FF4E853 		mov	r3, #7424
  51 0012 0193     		str	r3, [sp, #4]
 112:Src/usbd_conf.c ****     GPIO_InitStruct.Mode = GPIO_MODE_AF_PP;
  52              		.loc 1 112 0
  53 0014 0223     		movs	r3, #2
  54 0016 0293     		str	r3, [sp, #8]
 113:Src/usbd_conf.c ****     GPIO_InitStruct.Pull = GPIO_NOPULL;
  55              		.loc 1 113 0
  56 0018 0024     		movs	r4, #0
  57 001a 0394     		str	r4, [sp, #12]
 114:Src/usbd_conf.c ****     GPIO_InitStruct.Speed = GPIO_SPEED_FREQ_LOW;
ARM GAS  C:\Users\qqffx\AppData\Local\Temp\cca1jCli.s 			page 4


  58              		.loc 1 114 0
  59 001c 0494     		str	r4, [sp, #16]
 115:Src/usbd_conf.c ****     GPIO_InitStruct.Alternate = GPIO_AF10_OTG1_FS;
  60              		.loc 1 115 0
  61 001e 0A23     		movs	r3, #10
  62 0020 0593     		str	r3, [sp, #20]
 116:Src/usbd_conf.c ****     HAL_GPIO_Init(GPIOA, &GPIO_InitStruct);
  63              		.loc 1 116 0
  64 0022 134D     		ldr	r5, .L8+4
  65 0024 01A9     		add	r1, sp, #4
  66 0026 2846     		mov	r0, r5
  67              	.LVL1:
  68 0028 FFF7FEFF 		bl	HAL_GPIO_Init
  69              	.LVL2:
 117:Src/usbd_conf.c **** 
 118:Src/usbd_conf.c ****     GPIO_InitStruct.Pin = USB_VBUS_Pin;
  70              		.loc 1 118 0
  71 002c 4FF40073 		mov	r3, #512
  72 0030 0193     		str	r3, [sp, #4]
 119:Src/usbd_conf.c ****     GPIO_InitStruct.Mode = GPIO_MODE_INPUT;
  73              		.loc 1 119 0
  74 0032 0294     		str	r4, [sp, #8]
 120:Src/usbd_conf.c ****     GPIO_InitStruct.Pull = GPIO_NOPULL;
  75              		.loc 1 120 0
  76 0034 0394     		str	r4, [sp, #12]
 121:Src/usbd_conf.c ****     HAL_GPIO_Init(USB_VBUS_GPIO_Port, &GPIO_InitStruct);
  77              		.loc 1 121 0
  78 0036 01A9     		add	r1, sp, #4
  79 0038 2846     		mov	r0, r5
  80 003a FFF7FEFF 		bl	HAL_GPIO_Init
  81              	.LVL3:
  82              	.LBB2:
 122:Src/usbd_conf.c **** 
 123:Src/usbd_conf.c ****     /* Peripheral clock enable */
 124:Src/usbd_conf.c ****     __HAL_RCC_USB_OTG_FS_CLK_ENABLE();
  83              		.loc 1 124 0
  84 003e 0D4B     		ldr	r3, .L8+8
  85 0040 D3F8D820 		ldr	r2, [r3, #216]
  86 0044 42F00062 		orr	r2, r2, #134217728
  87 0048 C3F8D820 		str	r2, [r3, #216]
  88 004c D3F8D830 		ldr	r3, [r3, #216]
  89 0050 03F00063 		and	r3, r3, #134217728
  90 0054 0093     		str	r3, [sp]
  91 0056 009B     		ldr	r3, [sp]
  92              	.LBE2:
 125:Src/usbd_conf.c **** 
 126:Src/usbd_conf.c ****     /* Peripheral interrupt init */
 127:Src/usbd_conf.c ****     HAL_NVIC_SetPriority(OTG_FS_IRQn, 0, 0);
  93              		.loc 1 127 0
  94 0058 2246     		mov	r2, r4
  95 005a 2146     		mov	r1, r4
  96 005c 6520     		movs	r0, #101
  97 005e FFF7FEFF 		bl	HAL_NVIC_SetPriority
  98              	.LVL4:
 128:Src/usbd_conf.c ****     HAL_NVIC_EnableIRQ(OTG_FS_IRQn);
  99              		.loc 1 128 0
 100 0062 6520     		movs	r0, #101
ARM GAS  C:\Users\qqffx\AppData\Local\Temp\cca1jCli.s 			page 5


 101 0064 FFF7FEFF 		bl	HAL_NVIC_EnableIRQ
 102              	.LVL5:
 129:Src/usbd_conf.c ****   /* USER CODE BEGIN USB_OTG_FS_MspInit 1 */
 130:Src/usbd_conf.c **** 
 131:Src/usbd_conf.c ****   /* USER CODE END USB_OTG_FS_MspInit 1 */
 132:Src/usbd_conf.c ****   }
 133:Src/usbd_conf.c **** }
 103              		.loc 1 133 0
 104 0068 07B0     		add	sp, sp, #28
 105              	.LCFI2:
 106              		.cfi_def_cfa_offset 12
 107              		@ sp needed
 108 006a 30BD     		pop	{r4, r5, pc}
 109              	.L9:
 110              		.align	2
 111              	.L8:
 112 006c 00000840 		.word	1074266112
 113 0070 00000258 		.word	1476526080
 114 0074 00440258 		.word	1476543488
 115              		.cfi_endproc
 116              	.LFE137:
 118              		.section	.text.HAL_PCD_MspDeInit,"ax",%progbits
 119              		.align	1
 120              		.global	HAL_PCD_MspDeInit
 121              		.syntax unified
 122              		.thumb
 123              		.thumb_func
 124              		.fpu fpv5-d16
 126              	HAL_PCD_MspDeInit:
 127              	.LFB138:
 134:Src/usbd_conf.c **** 
 135:Src/usbd_conf.c **** void HAL_PCD_MspDeInit(PCD_HandleTypeDef* pcdHandle)
 136:Src/usbd_conf.c **** {
 128              		.loc 1 136 0
 129              		.cfi_startproc
 130              		@ args = 0, pretend = 0, frame = 0
 131              		@ frame_needed = 0, uses_anonymous_args = 0
 132              	.LVL6:
 133 0000 08B5     		push	{r3, lr}
 134              	.LCFI3:
 135              		.cfi_def_cfa_offset 8
 136              		.cfi_offset 3, -8
 137              		.cfi_offset 14, -4
 137:Src/usbd_conf.c ****   if(pcdHandle->Instance==USB_OTG_FS)
 138              		.loc 1 137 0
 139 0002 0268     		ldr	r2, [r0]
 140 0004 094B     		ldr	r3, .L14
 141 0006 9A42     		cmp	r2, r3
 142 0008 00D0     		beq	.L13
 143              	.LVL7:
 144              	.L10:
 138:Src/usbd_conf.c ****   {
 139:Src/usbd_conf.c ****   /* USER CODE BEGIN USB_OTG_FS_MspDeInit 0 */
 140:Src/usbd_conf.c **** 
 141:Src/usbd_conf.c ****   /* USER CODE END USB_OTG_FS_MspDeInit 0 */
 142:Src/usbd_conf.c ****     /* Peripheral clock disable */
 143:Src/usbd_conf.c ****     __HAL_RCC_USB_OTG_FS_CLK_DISABLE();
ARM GAS  C:\Users\qqffx\AppData\Local\Temp\cca1jCli.s 			page 6


 144:Src/usbd_conf.c ****   
 145:Src/usbd_conf.c ****     /**USB_OTG_FS GPIO Configuration    
 146:Src/usbd_conf.c ****     PA8     ------> USB_OTG_FS_SOF
 147:Src/usbd_conf.c ****     PA9     ------> USB_OTG_FS_VBUS
 148:Src/usbd_conf.c ****     PA10     ------> USB_OTG_FS_ID
 149:Src/usbd_conf.c ****     PA11     ------> USB_OTG_FS_DM
 150:Src/usbd_conf.c ****     PA12     ------> USB_OTG_FS_DP 
 151:Src/usbd_conf.c ****     */
 152:Src/usbd_conf.c ****     HAL_GPIO_DeInit(GPIOA, USB_SOF_Pin|USB_VBUS_Pin|USB_ID_Pin|USB_DM_Pin 
 153:Src/usbd_conf.c ****                           |USB_DP_Pin);
 154:Src/usbd_conf.c **** 
 155:Src/usbd_conf.c ****     /* Peripheral interrupt Deinit*/
 156:Src/usbd_conf.c ****     HAL_NVIC_DisableIRQ(OTG_FS_IRQn);
 157:Src/usbd_conf.c **** 
 158:Src/usbd_conf.c ****   /* USER CODE BEGIN USB_OTG_FS_MspDeInit 1 */
 159:Src/usbd_conf.c **** 
 160:Src/usbd_conf.c ****   /* USER CODE END USB_OTG_FS_MspDeInit 1 */
 161:Src/usbd_conf.c ****   }
 162:Src/usbd_conf.c **** }
 145              		.loc 1 162 0
 146 000a 08BD     		pop	{r3, pc}
 147              	.LVL8:
 148              	.L13:
 143:Src/usbd_conf.c ****   
 149              		.loc 1 143 0
 150 000c 084A     		ldr	r2, .L14+4
 151 000e D2F8D830 		ldr	r3, [r2, #216]
 152 0012 23F00063 		bic	r3, r3, #134217728
 153 0016 C2F8D830 		str	r3, [r2, #216]
 152:Src/usbd_conf.c ****                           |USB_DP_Pin);
 154              		.loc 1 152 0
 155 001a 4FF4F851 		mov	r1, #7936
 156 001e 0548     		ldr	r0, .L14+8
 157              	.LVL9:
 158 0020 FFF7FEFF 		bl	HAL_GPIO_DeInit
 159              	.LVL10:
 156:Src/usbd_conf.c **** 
 160              		.loc 1 156 0
 161 0024 6520     		movs	r0, #101
 162 0026 FFF7FEFF 		bl	HAL_NVIC_DisableIRQ
 163              	.LVL11:
 164              		.loc 1 162 0
 165 002a EEE7     		b	.L10
 166              	.L15:
 167              		.align	2
 168              	.L14:
 169 002c 00000840 		.word	1074266112
 170 0030 00440258 		.word	1476543488
 171 0034 00000258 		.word	1476526080
 172              		.cfi_endproc
 173              	.LFE138:
 175              		.section	.text.HAL_PCD_SetupStageCallback,"ax",%progbits
 176              		.align	1
 177              		.global	HAL_PCD_SetupStageCallback
 178              		.syntax unified
 179              		.thumb
 180              		.thumb_func
ARM GAS  C:\Users\qqffx\AppData\Local\Temp\cca1jCli.s 			page 7


 181              		.fpu fpv5-d16
 183              	HAL_PCD_SetupStageCallback:
 184              	.LFB139:
 163:Src/usbd_conf.c **** 
 164:Src/usbd_conf.c **** /**
 165:Src/usbd_conf.c ****   * @brief  Setup stage callback
 166:Src/usbd_conf.c ****   * @param  hpcd: PCD handle
 167:Src/usbd_conf.c ****   * @retval None
 168:Src/usbd_conf.c ****   */
 169:Src/usbd_conf.c **** void HAL_PCD_SetupStageCallback(PCD_HandleTypeDef *hpcd)
 170:Src/usbd_conf.c **** {
 185              		.loc 1 170 0
 186              		.cfi_startproc
 187              		@ args = 0, pretend = 0, frame = 0
 188              		@ frame_needed = 0, uses_anonymous_args = 0
 189              	.LVL12:
 190 0000 08B5     		push	{r3, lr}
 191              	.LCFI4:
 192              		.cfi_def_cfa_offset 8
 193              		.cfi_offset 3, -8
 194              		.cfi_offset 14, -4
 171:Src/usbd_conf.c ****   USBD_LL_SetupStage((USBD_HandleTypeDef*)hpcd->pData, (uint8_t *)hpcd->Setup);
 195              		.loc 1 171 0
 196 0002 00F56F71 		add	r1, r0, #956
 197 0006 D0F8FC03 		ldr	r0, [r0, #1020]
 198              	.LVL13:
 199 000a FFF7FEFF 		bl	USBD_LL_SetupStage
 200              	.LVL14:
 172:Src/usbd_conf.c **** }
 201              		.loc 1 172 0
 202 000e 08BD     		pop	{r3, pc}
 203              		.cfi_endproc
 204              	.LFE139:
 206              		.section	.text.HAL_PCD_DataOutStageCallback,"ax",%progbits
 207              		.align	1
 208              		.global	HAL_PCD_DataOutStageCallback
 209              		.syntax unified
 210              		.thumb
 211              		.thumb_func
 212              		.fpu fpv5-d16
 214              	HAL_PCD_DataOutStageCallback:
 215              	.LFB140:
 173:Src/usbd_conf.c **** 
 174:Src/usbd_conf.c **** /**
 175:Src/usbd_conf.c ****   * @brief  Data Out stage callback.
 176:Src/usbd_conf.c ****   * @param  hpcd: PCD handle
 177:Src/usbd_conf.c ****   * @param  epnum: Endpoint number
 178:Src/usbd_conf.c ****   * @retval None
 179:Src/usbd_conf.c ****   */
 180:Src/usbd_conf.c **** void HAL_PCD_DataOutStageCallback(PCD_HandleTypeDef *hpcd, uint8_t epnum)
 181:Src/usbd_conf.c **** {
 216              		.loc 1 181 0
 217              		.cfi_startproc
 218              		@ args = 0, pretend = 0, frame = 0
 219              		@ frame_needed = 0, uses_anonymous_args = 0
 220              	.LVL15:
 221 0000 08B5     		push	{r3, lr}
ARM GAS  C:\Users\qqffx\AppData\Local\Temp\cca1jCli.s 			page 8


 222              	.LCFI5:
 223              		.cfi_def_cfa_offset 8
 224              		.cfi_offset 3, -8
 225              		.cfi_offset 14, -4
 182:Src/usbd_conf.c ****   USBD_LL_DataOutStage((USBD_HandleTypeDef*)hpcd->pData, epnum, hpcd->OUT_ep[epnum].xfer_buff);
 226              		.loc 1 182 0
 227 0002 C1EBC102 		rsb	r2, r1, r1, lsl #3
 228 0006 9300     		lsls	r3, r2, #2
 229 0008 0344     		add	r3, r3, r0
 230 000a D3F80422 		ldr	r2, [r3, #516]
 231 000e D0F8FC03 		ldr	r0, [r0, #1020]
 232              	.LVL16:
 233 0012 FFF7FEFF 		bl	USBD_LL_DataOutStage
 234              	.LVL17:
 183:Src/usbd_conf.c **** }
 235              		.loc 1 183 0
 236 0016 08BD     		pop	{r3, pc}
 237              		.cfi_endproc
 238              	.LFE140:
 240              		.section	.text.HAL_PCD_DataInStageCallback,"ax",%progbits
 241              		.align	1
 242              		.global	HAL_PCD_DataInStageCallback
 243              		.syntax unified
 244              		.thumb
 245              		.thumb_func
 246              		.fpu fpv5-d16
 248              	HAL_PCD_DataInStageCallback:
 249              	.LFB141:
 184:Src/usbd_conf.c **** 
 185:Src/usbd_conf.c **** /**
 186:Src/usbd_conf.c ****   * @brief  Data In stage callback.
 187:Src/usbd_conf.c ****   * @param  hpcd: PCD handle
 188:Src/usbd_conf.c ****   * @param  epnum: Endpoint number
 189:Src/usbd_conf.c ****   * @retval None
 190:Src/usbd_conf.c ****   */
 191:Src/usbd_conf.c **** void HAL_PCD_DataInStageCallback(PCD_HandleTypeDef *hpcd, uint8_t epnum)
 192:Src/usbd_conf.c **** {
 250              		.loc 1 192 0
 251              		.cfi_startproc
 252              		@ args = 0, pretend = 0, frame = 0
 253              		@ frame_needed = 0, uses_anonymous_args = 0
 254              	.LVL18:
 255 0000 08B5     		push	{r3, lr}
 256              	.LCFI6:
 257              		.cfi_def_cfa_offset 8
 258              		.cfi_offset 3, -8
 259              		.cfi_offset 14, -4
 193:Src/usbd_conf.c ****   USBD_LL_DataInStage((USBD_HandleTypeDef*)hpcd->pData, epnum, hpcd->IN_ep[epnum].xfer_buff);
 260              		.loc 1 193 0
 261 0002 C1EBC102 		rsb	r2, r1, r1, lsl #3
 262 0006 9300     		lsls	r3, r2, #2
 263 0008 0344     		add	r3, r3, r0
 264 000a 5A6C     		ldr	r2, [r3, #68]
 265 000c D0F8FC03 		ldr	r0, [r0, #1020]
 266              	.LVL19:
 267 0010 FFF7FEFF 		bl	USBD_LL_DataInStage
 268              	.LVL20:
ARM GAS  C:\Users\qqffx\AppData\Local\Temp\cca1jCli.s 			page 9


 194:Src/usbd_conf.c **** }
 269              		.loc 1 194 0
 270 0014 08BD     		pop	{r3, pc}
 271              		.cfi_endproc
 272              	.LFE141:
 274              		.section	.text.HAL_PCD_SOFCallback,"ax",%progbits
 275              		.align	1
 276              		.global	HAL_PCD_SOFCallback
 277              		.syntax unified
 278              		.thumb
 279              		.thumb_func
 280              		.fpu fpv5-d16
 282              	HAL_PCD_SOFCallback:
 283              	.LFB142:
 195:Src/usbd_conf.c **** 
 196:Src/usbd_conf.c **** /**
 197:Src/usbd_conf.c ****   * @brief  SOF callback.
 198:Src/usbd_conf.c ****   * @param  hpcd: PCD handle
 199:Src/usbd_conf.c ****   * @retval None
 200:Src/usbd_conf.c ****   */
 201:Src/usbd_conf.c **** void HAL_PCD_SOFCallback(PCD_HandleTypeDef *hpcd)
 202:Src/usbd_conf.c **** {
 284              		.loc 1 202 0
 285              		.cfi_startproc
 286              		@ args = 0, pretend = 0, frame = 0
 287              		@ frame_needed = 0, uses_anonymous_args = 0
 288              	.LVL21:
 289 0000 08B5     		push	{r3, lr}
 290              	.LCFI7:
 291              		.cfi_def_cfa_offset 8
 292              		.cfi_offset 3, -8
 293              		.cfi_offset 14, -4
 203:Src/usbd_conf.c ****   USBD_LL_SOF((USBD_HandleTypeDef*)hpcd->pData);
 294              		.loc 1 203 0
 295 0002 D0F8FC03 		ldr	r0, [r0, #1020]
 296              	.LVL22:
 297 0006 FFF7FEFF 		bl	USBD_LL_SOF
 298              	.LVL23:
 204:Src/usbd_conf.c **** }
 299              		.loc 1 204 0
 300 000a 08BD     		pop	{r3, pc}
 301              		.cfi_endproc
 302              	.LFE142:
 304              		.section	.text.HAL_PCD_ResetCallback,"ax",%progbits
 305              		.align	1
 306              		.global	HAL_PCD_ResetCallback
 307              		.syntax unified
 308              		.thumb
 309              		.thumb_func
 310              		.fpu fpv5-d16
 312              	HAL_PCD_ResetCallback:
 313              	.LFB143:
 205:Src/usbd_conf.c **** 
 206:Src/usbd_conf.c **** /**
 207:Src/usbd_conf.c ****   * @brief  Reset callback.
 208:Src/usbd_conf.c ****   * @param  hpcd: PCD handle
 209:Src/usbd_conf.c ****   * @retval None
ARM GAS  C:\Users\qqffx\AppData\Local\Temp\cca1jCli.s 			page 10


 210:Src/usbd_conf.c ****   */
 211:Src/usbd_conf.c **** void HAL_PCD_ResetCallback(PCD_HandleTypeDef *hpcd)
 212:Src/usbd_conf.c **** { 
 314              		.loc 1 212 0
 315              		.cfi_startproc
 316              		@ args = 0, pretend = 0, frame = 0
 317              		@ frame_needed = 0, uses_anonymous_args = 0
 318              	.LVL24:
 319 0000 10B5     		push	{r4, lr}
 320              	.LCFI8:
 321              		.cfi_def_cfa_offset 8
 322              		.cfi_offset 4, -8
 323              		.cfi_offset 14, -4
 324 0002 0446     		mov	r4, r0
 325              	.LVL25:
 213:Src/usbd_conf.c ****   USBD_SpeedTypeDef speed = USBD_SPEED_FULL;
 214:Src/usbd_conf.c **** 
 215:Src/usbd_conf.c ****   /* Set USB current speed. */
 216:Src/usbd_conf.c ****   switch (hpcd->Init.speed)
 326              		.loc 1 216 0
 327 0004 C368     		ldr	r3, [r0, #12]
 328 0006 4BB1     		cbz	r3, .L30
 217:Src/usbd_conf.c ****   {
 218:Src/usbd_conf.c ****   case PCD_SPEED_HIGH:
 219:Src/usbd_conf.c ****     speed = USBD_SPEED_HIGH;
 220:Src/usbd_conf.c ****     break;
 221:Src/usbd_conf.c ****   case PCD_SPEED_FULL:
 222:Src/usbd_conf.c ****     speed = USBD_SPEED_FULL;
 329              		.loc 1 222 0
 330 0008 0121     		movs	r1, #1
 331              	.L25:
 332              	.LVL26:
 223:Src/usbd_conf.c ****     break;
 224:Src/usbd_conf.c **** 	
 225:Src/usbd_conf.c ****   default:
 226:Src/usbd_conf.c ****     speed = USBD_SPEED_FULL;
 227:Src/usbd_conf.c ****     break;    
 228:Src/usbd_conf.c ****   }
 229:Src/usbd_conf.c ****   USBD_LL_SetSpeed((USBD_HandleTypeDef*)hpcd->pData, speed);
 333              		.loc 1 229 0
 334 000a D4F8FC03 		ldr	r0, [r4, #1020]
 335              	.LVL27:
 336 000e FFF7FEFF 		bl	USBD_LL_SetSpeed
 337              	.LVL28:
 230:Src/usbd_conf.c ****   
 231:Src/usbd_conf.c ****   /* Reset Device. */
 232:Src/usbd_conf.c ****   USBD_LL_Reset((USBD_HandleTypeDef*)hpcd->pData);
 338              		.loc 1 232 0
 339 0012 D4F8FC03 		ldr	r0, [r4, #1020]
 340 0016 FFF7FEFF 		bl	USBD_LL_Reset
 341              	.LVL29:
 233:Src/usbd_conf.c **** }
 342              		.loc 1 233 0
 343 001a 10BD     		pop	{r4, pc}
 344              	.LVL30:
 345              	.L30:
 219:Src/usbd_conf.c ****     break;
ARM GAS  C:\Users\qqffx\AppData\Local\Temp\cca1jCli.s 			page 11


 346              		.loc 1 219 0
 347 001c 0021     		movs	r1, #0
 348 001e F4E7     		b	.L25
 349              		.cfi_endproc
 350              	.LFE143:
 352              		.section	.text.HAL_PCD_SuspendCallback,"ax",%progbits
 353              		.align	1
 354              		.global	HAL_PCD_SuspendCallback
 355              		.syntax unified
 356              		.thumb
 357              		.thumb_func
 358              		.fpu fpv5-d16
 360              	HAL_PCD_SuspendCallback:
 361              	.LFB144:
 234:Src/usbd_conf.c **** 
 235:Src/usbd_conf.c **** /**
 236:Src/usbd_conf.c ****   * @brief  Suspend callback.
 237:Src/usbd_conf.c ****   * When Low power mode is enabled the debug cannot be used (IAR, Keil doesn't support it)
 238:Src/usbd_conf.c ****   * @param  hpcd: PCD handle
 239:Src/usbd_conf.c ****   * @retval None
 240:Src/usbd_conf.c ****   */
 241:Src/usbd_conf.c **** void HAL_PCD_SuspendCallback(PCD_HandleTypeDef *hpcd)
 242:Src/usbd_conf.c **** {
 362              		.loc 1 242 0
 363              		.cfi_startproc
 364              		@ args = 0, pretend = 0, frame = 0
 365              		@ frame_needed = 0, uses_anonymous_args = 0
 366              	.LVL31:
 367 0000 10B5     		push	{r4, lr}
 368              	.LCFI9:
 369              		.cfi_def_cfa_offset 8
 370              		.cfi_offset 4, -8
 371              		.cfi_offset 14, -4
 372 0002 0446     		mov	r4, r0
 243:Src/usbd_conf.c ****   /* Inform USB library that core enters in suspend Mode. */
 244:Src/usbd_conf.c ****   USBD_LL_Suspend((USBD_HandleTypeDef*)hpcd->pData);
 373              		.loc 1 244 0
 374 0004 D0F8FC03 		ldr	r0, [r0, #1020]
 375              	.LVL32:
 376 0008 FFF7FEFF 		bl	USBD_LL_Suspend
 377              	.LVL33:
 245:Src/usbd_conf.c ****   __HAL_PCD_GATE_PHYCLOCK(hpcd);
 378              		.loc 1 245 0
 379 000c 2268     		ldr	r2, [r4]
 380 000e D2F8003E 		ldr	r3, [r2, #3584]
 381 0012 43F00103 		orr	r3, r3, #1
 382 0016 C2F8003E 		str	r3, [r2, #3584]
 246:Src/usbd_conf.c ****   /* Enter in STOP mode. */
 247:Src/usbd_conf.c ****   /* USER CODE BEGIN 2 */
 248:Src/usbd_conf.c ****   if (hpcd->Init.low_power_enable)
 383              		.loc 1 248 0
 384 001a 236A     		ldr	r3, [r4, #32]
 385 001c 23B1     		cbz	r3, .L31
 249:Src/usbd_conf.c ****   {
 250:Src/usbd_conf.c ****     /* Set SLEEPDEEP bit and SleepOnExit of Cortex System Control Register. */
 251:Src/usbd_conf.c ****     SCB->SCR |= (uint32_t)((uint32_t)(SCB_SCR_SLEEPDEEP_Msk | SCB_SCR_SLEEPONEXIT_Msk));
 386              		.loc 1 251 0
ARM GAS  C:\Users\qqffx\AppData\Local\Temp\cca1jCli.s 			page 12


 387 001e 034A     		ldr	r2, .L34
 388 0020 1369     		ldr	r3, [r2, #16]
 389 0022 43F00603 		orr	r3, r3, #6
 390 0026 1361     		str	r3, [r2, #16]
 391              	.L31:
 252:Src/usbd_conf.c ****   }
 253:Src/usbd_conf.c ****   /* USER CODE END 2 */
 254:Src/usbd_conf.c **** }
 392              		.loc 1 254 0
 393 0028 10BD     		pop	{r4, pc}
 394              	.LVL34:
 395              	.L35:
 396 002a 00BF     		.align	2
 397              	.L34:
 398 002c 00ED00E0 		.word	-536810240
 399              		.cfi_endproc
 400              	.LFE144:
 402              		.section	.text.HAL_PCD_ResumeCallback,"ax",%progbits
 403              		.align	1
 404              		.global	HAL_PCD_ResumeCallback
 405              		.syntax unified
 406              		.thumb
 407              		.thumb_func
 408              		.fpu fpv5-d16
 410              	HAL_PCD_ResumeCallback:
 411              	.LFB145:
 255:Src/usbd_conf.c **** 
 256:Src/usbd_conf.c **** /**
 257:Src/usbd_conf.c ****   * @brief  Resume callback.
 258:Src/usbd_conf.c ****   * When Low power mode is enabled the debug cannot be used (IAR, Keil doesn't support it)
 259:Src/usbd_conf.c ****   * @param  hpcd: PCD handle
 260:Src/usbd_conf.c ****   * @retval None
 261:Src/usbd_conf.c ****   */
 262:Src/usbd_conf.c **** void HAL_PCD_ResumeCallback(PCD_HandleTypeDef *hpcd)
 263:Src/usbd_conf.c **** {
 412              		.loc 1 263 0
 413              		.cfi_startproc
 414              		@ args = 0, pretend = 0, frame = 0
 415              		@ frame_needed = 0, uses_anonymous_args = 0
 416              	.LVL35:
 417 0000 08B5     		push	{r3, lr}
 418              	.LCFI10:
 419              		.cfi_def_cfa_offset 8
 420              		.cfi_offset 3, -8
 421              		.cfi_offset 14, -4
 264:Src/usbd_conf.c ****   /* USER CODE BEGIN 3 */
 265:Src/usbd_conf.c **** 
 266:Src/usbd_conf.c ****   /* USER CODE END 3 */
 267:Src/usbd_conf.c ****   USBD_LL_Resume((USBD_HandleTypeDef*)hpcd->pData);
 422              		.loc 1 267 0
 423 0002 D0F8FC03 		ldr	r0, [r0, #1020]
 424              	.LVL36:
 425 0006 FFF7FEFF 		bl	USBD_LL_Resume
 426              	.LVL37:
 268:Src/usbd_conf.c **** }
 427              		.loc 1 268 0
 428 000a 08BD     		pop	{r3, pc}
ARM GAS  C:\Users\qqffx\AppData\Local\Temp\cca1jCli.s 			page 13


 429              		.cfi_endproc
 430              	.LFE145:
 432              		.section	.text.HAL_PCD_ISOOUTIncompleteCallback,"ax",%progbits
 433              		.align	1
 434              		.global	HAL_PCD_ISOOUTIncompleteCallback
 435              		.syntax unified
 436              		.thumb
 437              		.thumb_func
 438              		.fpu fpv5-d16
 440              	HAL_PCD_ISOOUTIncompleteCallback:
 441              	.LFB146:
 269:Src/usbd_conf.c **** 
 270:Src/usbd_conf.c **** /**
 271:Src/usbd_conf.c ****   * @brief  ISOOUTIncomplete callback.
 272:Src/usbd_conf.c ****   * @param  hpcd: PCD handle
 273:Src/usbd_conf.c ****   * @param  epnum: Endpoint number
 274:Src/usbd_conf.c ****   * @retval None
 275:Src/usbd_conf.c ****   */
 276:Src/usbd_conf.c **** void HAL_PCD_ISOOUTIncompleteCallback(PCD_HandleTypeDef *hpcd, uint8_t epnum)
 277:Src/usbd_conf.c **** {
 442              		.loc 1 277 0
 443              		.cfi_startproc
 444              		@ args = 0, pretend = 0, frame = 0
 445              		@ frame_needed = 0, uses_anonymous_args = 0
 446              	.LVL38:
 447 0000 08B5     		push	{r3, lr}
 448              	.LCFI11:
 449              		.cfi_def_cfa_offset 8
 450              		.cfi_offset 3, -8
 451              		.cfi_offset 14, -4
 278:Src/usbd_conf.c ****   USBD_LL_IsoOUTIncomplete((USBD_HandleTypeDef*)hpcd->pData, epnum);
 452              		.loc 1 278 0
 453 0002 D0F8FC03 		ldr	r0, [r0, #1020]
 454              	.LVL39:
 455 0006 FFF7FEFF 		bl	USBD_LL_IsoOUTIncomplete
 456              	.LVL40:
 279:Src/usbd_conf.c **** }
 457              		.loc 1 279 0
 458 000a 08BD     		pop	{r3, pc}
 459              		.cfi_endproc
 460              	.LFE146:
 462              		.section	.text.HAL_PCD_ISOINIncompleteCallback,"ax",%progbits
 463              		.align	1
 464              		.global	HAL_PCD_ISOINIncompleteCallback
 465              		.syntax unified
 466              		.thumb
 467              		.thumb_func
 468              		.fpu fpv5-d16
 470              	HAL_PCD_ISOINIncompleteCallback:
 471              	.LFB147:
 280:Src/usbd_conf.c **** 
 281:Src/usbd_conf.c **** /**
 282:Src/usbd_conf.c ****   * @brief  ISOINIncomplete callback.
 283:Src/usbd_conf.c ****   * @param  hpcd: PCD handle
 284:Src/usbd_conf.c ****   * @param  epnum: Endpoint number
 285:Src/usbd_conf.c ****   * @retval None
 286:Src/usbd_conf.c ****   */
ARM GAS  C:\Users\qqffx\AppData\Local\Temp\cca1jCli.s 			page 14


 287:Src/usbd_conf.c **** void HAL_PCD_ISOINIncompleteCallback(PCD_HandleTypeDef *hpcd, uint8_t epnum)
 288:Src/usbd_conf.c **** {
 472              		.loc 1 288 0
 473              		.cfi_startproc
 474              		@ args = 0, pretend = 0, frame = 0
 475              		@ frame_needed = 0, uses_anonymous_args = 0
 476              	.LVL41:
 477 0000 08B5     		push	{r3, lr}
 478              	.LCFI12:
 479              		.cfi_def_cfa_offset 8
 480              		.cfi_offset 3, -8
 481              		.cfi_offset 14, -4
 289:Src/usbd_conf.c ****   USBD_LL_IsoINIncomplete((USBD_HandleTypeDef*)hpcd->pData, epnum);
 482              		.loc 1 289 0
 483 0002 D0F8FC03 		ldr	r0, [r0, #1020]
 484              	.LVL42:
 485 0006 FFF7FEFF 		bl	USBD_LL_IsoINIncomplete
 486              	.LVL43:
 290:Src/usbd_conf.c **** }
 487              		.loc 1 290 0
 488 000a 08BD     		pop	{r3, pc}
 489              		.cfi_endproc
 490              	.LFE147:
 492              		.section	.text.HAL_PCD_ConnectCallback,"ax",%progbits
 493              		.align	1
 494              		.global	HAL_PCD_ConnectCallback
 495              		.syntax unified
 496              		.thumb
 497              		.thumb_func
 498              		.fpu fpv5-d16
 500              	HAL_PCD_ConnectCallback:
 501              	.LFB148:
 291:Src/usbd_conf.c **** 
 292:Src/usbd_conf.c **** /**
 293:Src/usbd_conf.c ****   * @brief  Connect callback.
 294:Src/usbd_conf.c ****   * @param  hpcd: PCD handle
 295:Src/usbd_conf.c ****   * @retval None
 296:Src/usbd_conf.c ****   */
 297:Src/usbd_conf.c **** void HAL_PCD_ConnectCallback(PCD_HandleTypeDef *hpcd)
 298:Src/usbd_conf.c **** {
 502              		.loc 1 298 0
 503              		.cfi_startproc
 504              		@ args = 0, pretend = 0, frame = 0
 505              		@ frame_needed = 0, uses_anonymous_args = 0
 506              	.LVL44:
 507 0000 08B5     		push	{r3, lr}
 508              	.LCFI13:
 509              		.cfi_def_cfa_offset 8
 510              		.cfi_offset 3, -8
 511              		.cfi_offset 14, -4
 299:Src/usbd_conf.c ****   USBD_LL_DevConnected((USBD_HandleTypeDef*)hpcd->pData);
 512              		.loc 1 299 0
 513 0002 D0F8FC03 		ldr	r0, [r0, #1020]
 514              	.LVL45:
 515 0006 FFF7FEFF 		bl	USBD_LL_DevConnected
 516              	.LVL46:
 300:Src/usbd_conf.c **** }
ARM GAS  C:\Users\qqffx\AppData\Local\Temp\cca1jCli.s 			page 15


 517              		.loc 1 300 0
 518 000a 08BD     		pop	{r3, pc}
 519              		.cfi_endproc
 520              	.LFE148:
 522              		.section	.text.HAL_PCD_DisconnectCallback,"ax",%progbits
 523              		.align	1
 524              		.global	HAL_PCD_DisconnectCallback
 525              		.syntax unified
 526              		.thumb
 527              		.thumb_func
 528              		.fpu fpv5-d16
 530              	HAL_PCD_DisconnectCallback:
 531              	.LFB149:
 301:Src/usbd_conf.c **** 
 302:Src/usbd_conf.c **** /**
 303:Src/usbd_conf.c ****   * @brief  Disconnect callback.
 304:Src/usbd_conf.c ****   * @param  hpcd: PCD handle
 305:Src/usbd_conf.c ****   * @retval None
 306:Src/usbd_conf.c ****   */
 307:Src/usbd_conf.c **** void HAL_PCD_DisconnectCallback(PCD_HandleTypeDef *hpcd)
 308:Src/usbd_conf.c **** {
 532              		.loc 1 308 0
 533              		.cfi_startproc
 534              		@ args = 0, pretend = 0, frame = 0
 535              		@ frame_needed = 0, uses_anonymous_args = 0
 536              	.LVL47:
 537 0000 08B5     		push	{r3, lr}
 538              	.LCFI14:
 539              		.cfi_def_cfa_offset 8
 540              		.cfi_offset 3, -8
 541              		.cfi_offset 14, -4
 309:Src/usbd_conf.c ****   USBD_LL_DevDisconnected((USBD_HandleTypeDef*)hpcd->pData);
 542              		.loc 1 309 0
 543 0002 D0F8FC03 		ldr	r0, [r0, #1020]
 544              	.LVL48:
 545 0006 FFF7FEFF 		bl	USBD_LL_DevDisconnected
 546              	.LVL49:
 310:Src/usbd_conf.c **** }
 547              		.loc 1 310 0
 548 000a 08BD     		pop	{r3, pc}
 549              		.cfi_endproc
 550              	.LFE149:
 552              		.section	.text.USBD_LL_Init,"ax",%progbits
 553              		.align	1
 554              		.global	USBD_LL_Init
 555              		.syntax unified
 556              		.thumb
 557              		.thumb_func
 558              		.fpu fpv5-d16
 560              	USBD_LL_Init:
 561              	.LFB150:
 311:Src/usbd_conf.c **** 
 312:Src/usbd_conf.c **** /*******************************************************************************
 313:Src/usbd_conf.c ****                        LL Driver Interface (USB Device Library --> PCD)
 314:Src/usbd_conf.c **** *******************************************************************************/
 315:Src/usbd_conf.c **** 
 316:Src/usbd_conf.c **** /**
ARM GAS  C:\Users\qqffx\AppData\Local\Temp\cca1jCli.s 			page 16


 317:Src/usbd_conf.c ****   * @brief  Initializes the low level portion of the device driver.
 318:Src/usbd_conf.c ****   * @param  pdev: Device handle
 319:Src/usbd_conf.c ****   * @retval USBD status
 320:Src/usbd_conf.c ****   */
 321:Src/usbd_conf.c **** USBD_StatusTypeDef USBD_LL_Init(USBD_HandleTypeDef *pdev)
 322:Src/usbd_conf.c **** {
 562              		.loc 1 322 0
 563              		.cfi_startproc
 564              		@ args = 0, pretend = 0, frame = 0
 565              		@ frame_needed = 0, uses_anonymous_args = 0
 566              	.LVL50:
 323:Src/usbd_conf.c ****   /* Init USB Ip. */
 324:Src/usbd_conf.c ****   if (pdev->id == DEVICE_FS) {
 567              		.loc 1 324 0
 568 0000 0378     		ldrb	r3, [r0]	@ zero_extendqisi2
 569 0002 0BB1     		cbz	r3, .L53
 325:Src/usbd_conf.c ****   /* Link the driver to the stack. */
 326:Src/usbd_conf.c ****   hpcd_USB_OTG_FS.pData = pdev;
 327:Src/usbd_conf.c ****   pdev->pData = &hpcd_USB_OTG_FS;
 328:Src/usbd_conf.c ****   
 329:Src/usbd_conf.c ****   hpcd_USB_OTG_FS.Instance = USB_OTG_FS;
 330:Src/usbd_conf.c ****   hpcd_USB_OTG_FS.Init.dev_endpoints = 9;
 331:Src/usbd_conf.c ****   hpcd_USB_OTG_FS.Init.speed = PCD_SPEED_FULL;
 332:Src/usbd_conf.c ****   hpcd_USB_OTG_FS.Init.dma_enable = DISABLE;
 333:Src/usbd_conf.c ****   hpcd_USB_OTG_FS.Init.ep0_mps = DEP0CTL_MPS_64;
 334:Src/usbd_conf.c ****   hpcd_USB_OTG_FS.Init.phy_itface = PCD_PHY_EMBEDDED;
 335:Src/usbd_conf.c ****   hpcd_USB_OTG_FS.Init.Sof_enable = ENABLE;
 336:Src/usbd_conf.c ****   hpcd_USB_OTG_FS.Init.low_power_enable = DISABLE;
 337:Src/usbd_conf.c ****   hpcd_USB_OTG_FS.Init.lpm_enable = DISABLE;
 338:Src/usbd_conf.c ****   hpcd_USB_OTG_FS.Init.battery_charging_enable = ENABLE;
 339:Src/usbd_conf.c ****   hpcd_USB_OTG_FS.Init.vbus_sensing_enable = ENABLE;
 340:Src/usbd_conf.c ****   hpcd_USB_OTG_FS.Init.use_dedicated_ep1 = DISABLE;
 341:Src/usbd_conf.c ****   if (HAL_PCD_Init(&hpcd_USB_OTG_FS) != HAL_OK)
 342:Src/usbd_conf.c ****   {
 343:Src/usbd_conf.c ****     _Error_Handler(__FILE__, __LINE__);
 344:Src/usbd_conf.c ****   }
 345:Src/usbd_conf.c **** 
 346:Src/usbd_conf.c ****   HAL_PCDEx_SetRxFiFo(&hpcd_USB_OTG_FS, 0x80);
 347:Src/usbd_conf.c ****   HAL_PCDEx_SetTxFiFo(&hpcd_USB_OTG_FS, 0, 0x40);
 348:Src/usbd_conf.c ****   HAL_PCDEx_SetTxFiFo(&hpcd_USB_OTG_FS, 1, 0x80);
 349:Src/usbd_conf.c ****   }
 350:Src/usbd_conf.c ****   return USBD_OK;
 351:Src/usbd_conf.c **** }
 570              		.loc 1 351 0
 571 0004 0020     		movs	r0, #0
 572              	.LVL51:
 573 0006 7047     		bx	lr
 574              	.LVL52:
 575              	.L53:
 322:Src/usbd_conf.c ****   /* Init USB Ip. */
 576              		.loc 1 322 0
 577 0008 10B5     		push	{r4, lr}
 578              	.LCFI15:
 579              		.cfi_def_cfa_offset 8
 580              		.cfi_offset 4, -8
 581              		.cfi_offset 14, -4
 582 000a 0346     		mov	r3, r0
ARM GAS  C:\Users\qqffx\AppData\Local\Temp\cca1jCli.s 			page 17


 326:Src/usbd_conf.c ****   pdev->pData = &hpcd_USB_OTG_FS;
 583              		.loc 1 326 0
 584 000c 1748     		ldr	r0, .L55
 585              	.LVL53:
 586 000e C0F8FC33 		str	r3, [r0, #1020]
 327:Src/usbd_conf.c ****   
 587              		.loc 1 327 0
 588 0012 C3F82002 		str	r0, [r3, #544]
 329:Src/usbd_conf.c ****   hpcd_USB_OTG_FS.Init.dev_endpoints = 9;
 589              		.loc 1 329 0
 590 0016 164B     		ldr	r3, .L55+4
 591              	.LVL54:
 592 0018 0360     		str	r3, [r0]
 330:Src/usbd_conf.c ****   hpcd_USB_OTG_FS.Init.speed = PCD_SPEED_FULL;
 593              		.loc 1 330 0
 594 001a 0923     		movs	r3, #9
 595 001c 4360     		str	r3, [r0, #4]
 331:Src/usbd_conf.c ****   hpcd_USB_OTG_FS.Init.dma_enable = DISABLE;
 596              		.loc 1 331 0
 597 001e 0222     		movs	r2, #2
 598 0020 C260     		str	r2, [r0, #12]
 332:Src/usbd_conf.c ****   hpcd_USB_OTG_FS.Init.ep0_mps = DEP0CTL_MPS_64;
 599              		.loc 1 332 0
 600 0022 0023     		movs	r3, #0
 601 0024 0361     		str	r3, [r0, #16]
 333:Src/usbd_conf.c ****   hpcd_USB_OTG_FS.Init.phy_itface = PCD_PHY_EMBEDDED;
 602              		.loc 1 333 0
 603 0026 4361     		str	r3, [r0, #20]
 334:Src/usbd_conf.c ****   hpcd_USB_OTG_FS.Init.Sof_enable = ENABLE;
 604              		.loc 1 334 0
 605 0028 8261     		str	r2, [r0, #24]
 335:Src/usbd_conf.c ****   hpcd_USB_OTG_FS.Init.low_power_enable = DISABLE;
 606              		.loc 1 335 0
 607 002a 0122     		movs	r2, #1
 608 002c C261     		str	r2, [r0, #28]
 336:Src/usbd_conf.c ****   hpcd_USB_OTG_FS.Init.lpm_enable = DISABLE;
 609              		.loc 1 336 0
 610 002e 0362     		str	r3, [r0, #32]
 337:Src/usbd_conf.c ****   hpcd_USB_OTG_FS.Init.battery_charging_enable = ENABLE;
 611              		.loc 1 337 0
 612 0030 8362     		str	r3, [r0, #40]
 338:Src/usbd_conf.c ****   hpcd_USB_OTG_FS.Init.vbus_sensing_enable = ENABLE;
 613              		.loc 1 338 0
 614 0032 4262     		str	r2, [r0, #36]
 339:Src/usbd_conf.c ****   hpcd_USB_OTG_FS.Init.use_dedicated_ep1 = DISABLE;
 615              		.loc 1 339 0
 616 0034 C262     		str	r2, [r0, #44]
 340:Src/usbd_conf.c ****   if (HAL_PCD_Init(&hpcd_USB_OTG_FS) != HAL_OK)
 617              		.loc 1 340 0
 618 0036 0363     		str	r3, [r0, #48]
 341:Src/usbd_conf.c ****   {
 619              		.loc 1 341 0
 620 0038 FFF7FEFF 		bl	HAL_PCD_Init
 621              	.LVL55:
 622 003c 80B9     		cbnz	r0, .L54
 623              	.L48:
 346:Src/usbd_conf.c ****   HAL_PCDEx_SetTxFiFo(&hpcd_USB_OTG_FS, 0, 0x40);
ARM GAS  C:\Users\qqffx\AppData\Local\Temp\cca1jCli.s 			page 18


 624              		.loc 1 346 0
 625 003e 0B4C     		ldr	r4, .L55
 626 0040 8021     		movs	r1, #128
 627 0042 2046     		mov	r0, r4
 628 0044 FFF7FEFF 		bl	HAL_PCDEx_SetRxFiFo
 629              	.LVL56:
 347:Src/usbd_conf.c ****   HAL_PCDEx_SetTxFiFo(&hpcd_USB_OTG_FS, 1, 0x80);
 630              		.loc 1 347 0
 631 0048 4022     		movs	r2, #64
 632 004a 0021     		movs	r1, #0
 633 004c 2046     		mov	r0, r4
 634 004e FFF7FEFF 		bl	HAL_PCDEx_SetTxFiFo
 635              	.LVL57:
 348:Src/usbd_conf.c ****   }
 636              		.loc 1 348 0
 637 0052 8022     		movs	r2, #128
 638 0054 0121     		movs	r1, #1
 639 0056 2046     		mov	r0, r4
 640 0058 FFF7FEFF 		bl	HAL_PCDEx_SetTxFiFo
 641              	.LVL58:
 642              		.loc 1 351 0
 643 005c 0020     		movs	r0, #0
 644 005e 10BD     		pop	{r4, pc}
 645              	.L54:
 343:Src/usbd_conf.c ****   }
 646              		.loc 1 343 0
 647 0060 40F25711 		movw	r1, #343
 648 0064 0348     		ldr	r0, .L55+8
 649 0066 FFF7FEFF 		bl	_Error_Handler
 650              	.LVL59:
 651 006a E8E7     		b	.L48
 652              	.L56:
 653              		.align	2
 654              	.L55:
 655 006c 00000000 		.word	hpcd_USB_OTG_FS
 656 0070 00000840 		.word	1074266112
 657 0074 00000000 		.word	.LC0
 658              		.cfi_endproc
 659              	.LFE150:
 661              		.section	.text.USBD_LL_DeInit,"ax",%progbits
 662              		.align	1
 663              		.global	USBD_LL_DeInit
 664              		.syntax unified
 665              		.thumb
 666              		.thumb_func
 667              		.fpu fpv5-d16
 669              	USBD_LL_DeInit:
 670              	.LFB151:
 352:Src/usbd_conf.c **** 
 353:Src/usbd_conf.c **** /**
 354:Src/usbd_conf.c ****   * @brief  De-Initializes the low level portion of the device driver.
 355:Src/usbd_conf.c ****   * @param  pdev: Device handle
 356:Src/usbd_conf.c ****   * @retval USBD status
 357:Src/usbd_conf.c ****   */
 358:Src/usbd_conf.c **** USBD_StatusTypeDef USBD_LL_DeInit(USBD_HandleTypeDef *pdev)
 359:Src/usbd_conf.c **** {
 671              		.loc 1 359 0
ARM GAS  C:\Users\qqffx\AppData\Local\Temp\cca1jCli.s 			page 19


 672              		.cfi_startproc
 673              		@ args = 0, pretend = 0, frame = 0
 674              		@ frame_needed = 0, uses_anonymous_args = 0
 675              	.LVL60:
 676 0000 08B5     		push	{r3, lr}
 677              	.LCFI16:
 678              		.cfi_def_cfa_offset 8
 679              		.cfi_offset 3, -8
 680              		.cfi_offset 14, -4
 681              	.LVL61:
 360:Src/usbd_conf.c ****   HAL_StatusTypeDef hal_status = HAL_OK;
 361:Src/usbd_conf.c ****   USBD_StatusTypeDef usb_status = USBD_OK;
 362:Src/usbd_conf.c **** 
 363:Src/usbd_conf.c ****   hal_status = HAL_PCD_DeInit(pdev->pData);
 682              		.loc 1 363 0
 683 0002 D0F82002 		ldr	r0, [r0, #544]
 684              	.LVL62:
 685 0006 FFF7FEFF 		bl	HAL_PCD_DeInit
 686              	.LVL63:
 364:Src/usbd_conf.c **** 
 365:Src/usbd_conf.c ****   switch (hal_status) {
 687              		.loc 1 365 0
 688 000a 18B1     		cbz	r0, .L59
 689 000c 0228     		cmp	r0, #2
 690 000e 03D0     		beq	.L60
 366:Src/usbd_conf.c ****     case HAL_OK :
 367:Src/usbd_conf.c ****       usb_status = USBD_OK;
 368:Src/usbd_conf.c ****     break;
 369:Src/usbd_conf.c ****     case HAL_ERROR :
 370:Src/usbd_conf.c ****       usb_status = USBD_FAIL;
 691              		.loc 1 370 0
 692 0010 0220     		movs	r0, #2
 693              	.LVL64:
 694              	.L58:
 371:Src/usbd_conf.c ****     break;
 372:Src/usbd_conf.c ****     case HAL_BUSY :
 373:Src/usbd_conf.c ****       usb_status = USBD_BUSY;
 374:Src/usbd_conf.c ****     break;
 375:Src/usbd_conf.c ****     case HAL_TIMEOUT :
 376:Src/usbd_conf.c ****       usb_status = USBD_FAIL;
 377:Src/usbd_conf.c ****     break;
 378:Src/usbd_conf.c ****     default :
 379:Src/usbd_conf.c ****       usb_status = USBD_FAIL;
 380:Src/usbd_conf.c ****     break;
 381:Src/usbd_conf.c ****   }
 382:Src/usbd_conf.c ****   return usb_status; 
 383:Src/usbd_conf.c **** }
 695              		.loc 1 383 0
 696 0012 08BD     		pop	{r3, pc}
 697              	.LVL65:
 698              	.L59:
 367:Src/usbd_conf.c ****     break;
 699              		.loc 1 367 0
 700 0014 0020     		movs	r0, #0
 701              	.LVL66:
 702 0016 FCE7     		b	.L58
 703              	.LVL67:
ARM GAS  C:\Users\qqffx\AppData\Local\Temp\cca1jCli.s 			page 20


 704              	.L60:
 373:Src/usbd_conf.c ****     break;
 705              		.loc 1 373 0
 706 0018 0120     		movs	r0, #1
 707              	.LVL68:
 374:Src/usbd_conf.c ****     case HAL_TIMEOUT :
 708              		.loc 1 374 0
 709 001a FAE7     		b	.L58
 710              		.cfi_endproc
 711              	.LFE151:
 713              		.section	.text.USBD_LL_Start,"ax",%progbits
 714              		.align	1
 715              		.global	USBD_LL_Start
 716              		.syntax unified
 717              		.thumb
 718              		.thumb_func
 719              		.fpu fpv5-d16
 721              	USBD_LL_Start:
 722              	.LFB152:
 384:Src/usbd_conf.c **** 
 385:Src/usbd_conf.c **** /**
 386:Src/usbd_conf.c ****   * @brief  Starts the low level portion of the device driver.
 387:Src/usbd_conf.c ****   * @param  pdev: Device handle
 388:Src/usbd_conf.c ****   * @retval USBD status
 389:Src/usbd_conf.c ****   */
 390:Src/usbd_conf.c **** USBD_StatusTypeDef USBD_LL_Start(USBD_HandleTypeDef *pdev)
 391:Src/usbd_conf.c **** {
 723              		.loc 1 391 0
 724              		.cfi_startproc
 725              		@ args = 0, pretend = 0, frame = 0
 726              		@ frame_needed = 0, uses_anonymous_args = 0
 727              	.LVL69:
 728 0000 08B5     		push	{r3, lr}
 729              	.LCFI17:
 730              		.cfi_def_cfa_offset 8
 731              		.cfi_offset 3, -8
 732              		.cfi_offset 14, -4
 733              	.LVL70:
 392:Src/usbd_conf.c ****   HAL_StatusTypeDef hal_status = HAL_OK;
 393:Src/usbd_conf.c ****   USBD_StatusTypeDef usb_status = USBD_OK;
 394:Src/usbd_conf.c ****  
 395:Src/usbd_conf.c ****   hal_status = HAL_PCD_Start(pdev->pData);
 734              		.loc 1 395 0
 735 0002 D0F82002 		ldr	r0, [r0, #544]
 736              	.LVL71:
 737 0006 FFF7FEFF 		bl	HAL_PCD_Start
 738              	.LVL72:
 396:Src/usbd_conf.c ****      
 397:Src/usbd_conf.c ****   switch (hal_status) {
 739              		.loc 1 397 0
 740 000a 18B1     		cbz	r0, .L66
 741 000c 0228     		cmp	r0, #2
 742 000e 03D0     		beq	.L67
 398:Src/usbd_conf.c ****     case HAL_OK :
 399:Src/usbd_conf.c ****       usb_status = USBD_OK;
 400:Src/usbd_conf.c ****     break;
 401:Src/usbd_conf.c ****     case HAL_ERROR :
ARM GAS  C:\Users\qqffx\AppData\Local\Temp\cca1jCli.s 			page 21


 402:Src/usbd_conf.c ****       usb_status = USBD_FAIL;
 743              		.loc 1 402 0
 744 0010 0220     		movs	r0, #2
 745              	.LVL73:
 746              	.L65:
 403:Src/usbd_conf.c ****     break;
 404:Src/usbd_conf.c ****     case HAL_BUSY :
 405:Src/usbd_conf.c ****       usb_status = USBD_BUSY;
 406:Src/usbd_conf.c ****     break;
 407:Src/usbd_conf.c ****     case HAL_TIMEOUT :
 408:Src/usbd_conf.c ****       usb_status = USBD_FAIL;
 409:Src/usbd_conf.c ****     break;
 410:Src/usbd_conf.c ****     default :
 411:Src/usbd_conf.c ****       usb_status = USBD_FAIL;
 412:Src/usbd_conf.c ****     break;
 413:Src/usbd_conf.c ****   }
 414:Src/usbd_conf.c ****   return usb_status;
 415:Src/usbd_conf.c **** }
 747              		.loc 1 415 0
 748 0012 08BD     		pop	{r3, pc}
 749              	.LVL74:
 750              	.L66:
 399:Src/usbd_conf.c ****     break;
 751              		.loc 1 399 0
 752 0014 0020     		movs	r0, #0
 753              	.LVL75:
 754 0016 FCE7     		b	.L65
 755              	.LVL76:
 756              	.L67:
 405:Src/usbd_conf.c ****     break;
 757              		.loc 1 405 0
 758 0018 0120     		movs	r0, #1
 759              	.LVL77:
 406:Src/usbd_conf.c ****     case HAL_TIMEOUT :
 760              		.loc 1 406 0
 761 001a FAE7     		b	.L65
 762              		.cfi_endproc
 763              	.LFE152:
 765              		.section	.text.USBD_LL_Stop,"ax",%progbits
 766              		.align	1
 767              		.global	USBD_LL_Stop
 768              		.syntax unified
 769              		.thumb
 770              		.thumb_func
 771              		.fpu fpv5-d16
 773              	USBD_LL_Stop:
 774              	.LFB153:
 416:Src/usbd_conf.c **** 
 417:Src/usbd_conf.c **** /**
 418:Src/usbd_conf.c ****   * @brief  Stops the low level portion of the device driver.
 419:Src/usbd_conf.c ****   * @param  pdev: Device handle
 420:Src/usbd_conf.c ****   * @retval USBD status
 421:Src/usbd_conf.c ****   */
 422:Src/usbd_conf.c **** USBD_StatusTypeDef USBD_LL_Stop(USBD_HandleTypeDef *pdev)
 423:Src/usbd_conf.c **** {
 775              		.loc 1 423 0
 776              		.cfi_startproc
ARM GAS  C:\Users\qqffx\AppData\Local\Temp\cca1jCli.s 			page 22


 777              		@ args = 0, pretend = 0, frame = 0
 778              		@ frame_needed = 0, uses_anonymous_args = 0
 779              	.LVL78:
 780 0000 08B5     		push	{r3, lr}
 781              	.LCFI18:
 782              		.cfi_def_cfa_offset 8
 783              		.cfi_offset 3, -8
 784              		.cfi_offset 14, -4
 785              	.LVL79:
 424:Src/usbd_conf.c ****   HAL_StatusTypeDef hal_status = HAL_OK;
 425:Src/usbd_conf.c ****   USBD_StatusTypeDef usb_status = USBD_OK;
 426:Src/usbd_conf.c **** 
 427:Src/usbd_conf.c ****   hal_status = HAL_PCD_Stop(pdev->pData);
 786              		.loc 1 427 0
 787 0002 D0F82002 		ldr	r0, [r0, #544]
 788              	.LVL80:
 789 0006 FFF7FEFF 		bl	HAL_PCD_Stop
 790              	.LVL81:
 428:Src/usbd_conf.c **** 
 429:Src/usbd_conf.c ****   switch (hal_status) {
 791              		.loc 1 429 0
 792 000a 18B1     		cbz	r0, .L73
 793 000c 0228     		cmp	r0, #2
 794 000e 03D0     		beq	.L74
 430:Src/usbd_conf.c ****     case HAL_OK :
 431:Src/usbd_conf.c ****       usb_status = USBD_OK;
 432:Src/usbd_conf.c ****     break;
 433:Src/usbd_conf.c ****     case HAL_ERROR :
 434:Src/usbd_conf.c ****       usb_status = USBD_FAIL;
 795              		.loc 1 434 0
 796 0010 0220     		movs	r0, #2
 797              	.LVL82:
 798              	.L72:
 435:Src/usbd_conf.c ****     break;
 436:Src/usbd_conf.c ****     case HAL_BUSY :
 437:Src/usbd_conf.c ****       usb_status = USBD_BUSY;
 438:Src/usbd_conf.c ****     break;
 439:Src/usbd_conf.c ****     case HAL_TIMEOUT :
 440:Src/usbd_conf.c ****       usb_status = USBD_FAIL;
 441:Src/usbd_conf.c ****     break;
 442:Src/usbd_conf.c ****     default :
 443:Src/usbd_conf.c ****       usb_status = USBD_FAIL;
 444:Src/usbd_conf.c ****     break;
 445:Src/usbd_conf.c ****   }
 446:Src/usbd_conf.c ****   return usb_status;
 447:Src/usbd_conf.c **** }
 799              		.loc 1 447 0
 800 0012 08BD     		pop	{r3, pc}
 801              	.LVL83:
 802              	.L73:
 431:Src/usbd_conf.c ****     break;
 803              		.loc 1 431 0
 804 0014 0020     		movs	r0, #0
 805              	.LVL84:
 806 0016 FCE7     		b	.L72
 807              	.LVL85:
 808              	.L74:
ARM GAS  C:\Users\qqffx\AppData\Local\Temp\cca1jCli.s 			page 23


 437:Src/usbd_conf.c ****     break;
 809              		.loc 1 437 0
 810 0018 0120     		movs	r0, #1
 811              	.LVL86:
 438:Src/usbd_conf.c ****     case HAL_TIMEOUT :
 812              		.loc 1 438 0
 813 001a FAE7     		b	.L72
 814              		.cfi_endproc
 815              	.LFE153:
 817              		.section	.text.USBD_LL_OpenEP,"ax",%progbits
 818              		.align	1
 819              		.global	USBD_LL_OpenEP
 820              		.syntax unified
 821              		.thumb
 822              		.thumb_func
 823              		.fpu fpv5-d16
 825              	USBD_LL_OpenEP:
 826              	.LFB154:
 448:Src/usbd_conf.c **** 
 449:Src/usbd_conf.c **** /**
 450:Src/usbd_conf.c ****   * @brief  Opens an endpoint of the low level driver.
 451:Src/usbd_conf.c ****   * @param  pdev: Device handle
 452:Src/usbd_conf.c ****   * @param  ep_addr: Endpoint number
 453:Src/usbd_conf.c ****   * @param  ep_type: Endpoint type
 454:Src/usbd_conf.c ****   * @param  ep_mps: Endpoint max packet size
 455:Src/usbd_conf.c ****   * @retval USBD status
 456:Src/usbd_conf.c ****   */
 457:Src/usbd_conf.c **** USBD_StatusTypeDef USBD_LL_OpenEP(USBD_HandleTypeDef *pdev, uint8_t ep_addr, uint8_t ep_type, uint1
 458:Src/usbd_conf.c **** {
 827              		.loc 1 458 0
 828              		.cfi_startproc
 829              		@ args = 0, pretend = 0, frame = 0
 830              		@ frame_needed = 0, uses_anonymous_args = 0
 831              	.LVL87:
 832 0000 10B5     		push	{r4, lr}
 833              	.LCFI19:
 834              		.cfi_def_cfa_offset 8
 835              		.cfi_offset 4, -8
 836              		.cfi_offset 14, -4
 837 0002 1C46     		mov	r4, r3
 838              	.LVL88:
 459:Src/usbd_conf.c ****   HAL_StatusTypeDef hal_status = HAL_OK;
 460:Src/usbd_conf.c ****   USBD_StatusTypeDef usb_status = USBD_OK;
 461:Src/usbd_conf.c **** 
 462:Src/usbd_conf.c ****   hal_status = HAL_PCD_EP_Open(pdev->pData, ep_addr, ep_mps, ep_type);
 839              		.loc 1 462 0
 840 0004 1346     		mov	r3, r2
 841              	.LVL89:
 842 0006 2246     		mov	r2, r4
 843              	.LVL90:
 844 0008 D0F82002 		ldr	r0, [r0, #544]
 845              	.LVL91:
 846 000c FFF7FEFF 		bl	HAL_PCD_EP_Open
 847              	.LVL92:
 463:Src/usbd_conf.c **** 
 464:Src/usbd_conf.c ****   switch (hal_status) {
 848              		.loc 1 464 0
ARM GAS  C:\Users\qqffx\AppData\Local\Temp\cca1jCli.s 			page 24


 849 0010 18B1     		cbz	r0, .L80
 850 0012 0228     		cmp	r0, #2
 851 0014 03D0     		beq	.L81
 465:Src/usbd_conf.c ****     case HAL_OK :
 466:Src/usbd_conf.c ****       usb_status = USBD_OK;
 467:Src/usbd_conf.c ****     break;
 468:Src/usbd_conf.c ****     case HAL_ERROR :
 469:Src/usbd_conf.c ****       usb_status = USBD_FAIL;
 852              		.loc 1 469 0
 853 0016 0220     		movs	r0, #2
 854              	.LVL93:
 855              	.L79:
 470:Src/usbd_conf.c ****     break;
 471:Src/usbd_conf.c ****     case HAL_BUSY :
 472:Src/usbd_conf.c ****       usb_status = USBD_BUSY;
 473:Src/usbd_conf.c ****     break;
 474:Src/usbd_conf.c ****     case HAL_TIMEOUT :
 475:Src/usbd_conf.c ****       usb_status = USBD_FAIL;
 476:Src/usbd_conf.c ****     break;
 477:Src/usbd_conf.c ****     default :
 478:Src/usbd_conf.c ****       usb_status = USBD_FAIL;
 479:Src/usbd_conf.c ****     break;
 480:Src/usbd_conf.c ****   }
 481:Src/usbd_conf.c ****   return usb_status;
 482:Src/usbd_conf.c **** }
 856              		.loc 1 482 0
 857 0018 10BD     		pop	{r4, pc}
 858              	.LVL94:
 859              	.L80:
 466:Src/usbd_conf.c ****     break;
 860              		.loc 1 466 0
 861 001a 0020     		movs	r0, #0
 862              	.LVL95:
 863 001c FCE7     		b	.L79
 864              	.LVL96:
 865              	.L81:
 472:Src/usbd_conf.c ****     break;
 866              		.loc 1 472 0
 867 001e 0120     		movs	r0, #1
 868              	.LVL97:
 473:Src/usbd_conf.c ****     case HAL_TIMEOUT :
 869              		.loc 1 473 0
 870 0020 FAE7     		b	.L79
 871              		.cfi_endproc
 872              	.LFE154:
 874              		.section	.text.USBD_LL_CloseEP,"ax",%progbits
 875              		.align	1
 876              		.global	USBD_LL_CloseEP
 877              		.syntax unified
 878              		.thumb
 879              		.thumb_func
 880              		.fpu fpv5-d16
 882              	USBD_LL_CloseEP:
 883              	.LFB155:
 483:Src/usbd_conf.c **** 
 484:Src/usbd_conf.c **** /**
 485:Src/usbd_conf.c ****   * @brief  Closes an endpoint of the low level driver.
ARM GAS  C:\Users\qqffx\AppData\Local\Temp\cca1jCli.s 			page 25


 486:Src/usbd_conf.c ****   * @param  pdev: Device handle
 487:Src/usbd_conf.c ****   * @param  ep_addr: Endpoint number
 488:Src/usbd_conf.c ****   * @retval USBD status
 489:Src/usbd_conf.c ****   */
 490:Src/usbd_conf.c **** USBD_StatusTypeDef USBD_LL_CloseEP(USBD_HandleTypeDef *pdev, uint8_t ep_addr)
 491:Src/usbd_conf.c **** {
 884              		.loc 1 491 0
 885              		.cfi_startproc
 886              		@ args = 0, pretend = 0, frame = 0
 887              		@ frame_needed = 0, uses_anonymous_args = 0
 888              	.LVL98:
 889 0000 08B5     		push	{r3, lr}
 890              	.LCFI20:
 891              		.cfi_def_cfa_offset 8
 892              		.cfi_offset 3, -8
 893              		.cfi_offset 14, -4
 894              	.LVL99:
 492:Src/usbd_conf.c ****   HAL_StatusTypeDef hal_status = HAL_OK;
 493:Src/usbd_conf.c ****   USBD_StatusTypeDef usb_status = USBD_OK;
 494:Src/usbd_conf.c ****   
 495:Src/usbd_conf.c ****   hal_status = HAL_PCD_EP_Close(pdev->pData, ep_addr);
 895              		.loc 1 495 0
 896 0002 D0F82002 		ldr	r0, [r0, #544]
 897              	.LVL100:
 898 0006 FFF7FEFF 		bl	HAL_PCD_EP_Close
 899              	.LVL101:
 496:Src/usbd_conf.c ****       
 497:Src/usbd_conf.c ****   switch (hal_status) {
 900              		.loc 1 497 0
 901 000a 18B1     		cbz	r0, .L87
 902 000c 0228     		cmp	r0, #2
 903 000e 03D0     		beq	.L88
 498:Src/usbd_conf.c ****     case HAL_OK :
 499:Src/usbd_conf.c ****       usb_status = USBD_OK;
 500:Src/usbd_conf.c ****     break;
 501:Src/usbd_conf.c ****     case HAL_ERROR :
 502:Src/usbd_conf.c ****       usb_status = USBD_FAIL;
 904              		.loc 1 502 0
 905 0010 0220     		movs	r0, #2
 906              	.LVL102:
 907              	.L86:
 503:Src/usbd_conf.c ****     break;
 504:Src/usbd_conf.c ****     case HAL_BUSY :
 505:Src/usbd_conf.c ****       usb_status = USBD_BUSY;
 506:Src/usbd_conf.c ****     break;
 507:Src/usbd_conf.c ****     case HAL_TIMEOUT :
 508:Src/usbd_conf.c ****       usb_status = USBD_FAIL;
 509:Src/usbd_conf.c ****     break;
 510:Src/usbd_conf.c ****     default :
 511:Src/usbd_conf.c ****       usb_status = USBD_FAIL;
 512:Src/usbd_conf.c ****     break;
 513:Src/usbd_conf.c ****   }
 514:Src/usbd_conf.c ****   return usb_status;  
 515:Src/usbd_conf.c **** }
 908              		.loc 1 515 0
 909 0012 08BD     		pop	{r3, pc}
 910              	.LVL103:
ARM GAS  C:\Users\qqffx\AppData\Local\Temp\cca1jCli.s 			page 26


 911              	.L87:
 499:Src/usbd_conf.c ****     break;
 912              		.loc 1 499 0
 913 0014 0020     		movs	r0, #0
 914              	.LVL104:
 915 0016 FCE7     		b	.L86
 916              	.LVL105:
 917              	.L88:
 505:Src/usbd_conf.c ****     break;
 918              		.loc 1 505 0
 919 0018 0120     		movs	r0, #1
 920              	.LVL106:
 506:Src/usbd_conf.c ****     case HAL_TIMEOUT :
 921              		.loc 1 506 0
 922 001a FAE7     		b	.L86
 923              		.cfi_endproc
 924              	.LFE155:
 926              		.section	.text.USBD_LL_FlushEP,"ax",%progbits
 927              		.align	1
 928              		.global	USBD_LL_FlushEP
 929              		.syntax unified
 930              		.thumb
 931              		.thumb_func
 932              		.fpu fpv5-d16
 934              	USBD_LL_FlushEP:
 935              	.LFB156:
 516:Src/usbd_conf.c **** 
 517:Src/usbd_conf.c **** /**
 518:Src/usbd_conf.c ****   * @brief  Flushes an endpoint of the Low Level Driver.
 519:Src/usbd_conf.c ****   * @param  pdev: Device handle
 520:Src/usbd_conf.c ****   * @param  ep_addr: Endpoint number
 521:Src/usbd_conf.c ****   * @retval USBD status
 522:Src/usbd_conf.c ****   */
 523:Src/usbd_conf.c **** USBD_StatusTypeDef USBD_LL_FlushEP(USBD_HandleTypeDef *pdev, uint8_t ep_addr)
 524:Src/usbd_conf.c **** {
 936              		.loc 1 524 0
 937              		.cfi_startproc
 938              		@ args = 0, pretend = 0, frame = 0
 939              		@ frame_needed = 0, uses_anonymous_args = 0
 940              	.LVL107:
 941 0000 08B5     		push	{r3, lr}
 942              	.LCFI21:
 943              		.cfi_def_cfa_offset 8
 944              		.cfi_offset 3, -8
 945              		.cfi_offset 14, -4
 946              	.LVL108:
 525:Src/usbd_conf.c ****   HAL_StatusTypeDef hal_status = HAL_OK;
 526:Src/usbd_conf.c ****   USBD_StatusTypeDef usb_status = USBD_OK;
 527:Src/usbd_conf.c ****   
 528:Src/usbd_conf.c ****   hal_status = HAL_PCD_EP_Flush(pdev->pData, ep_addr);
 947              		.loc 1 528 0
 948 0002 D0F82002 		ldr	r0, [r0, #544]
 949              	.LVL109:
 950 0006 FFF7FEFF 		bl	HAL_PCD_EP_Flush
 951              	.LVL110:
 529:Src/usbd_conf.c ****       
 530:Src/usbd_conf.c ****   switch (hal_status) {
ARM GAS  C:\Users\qqffx\AppData\Local\Temp\cca1jCli.s 			page 27


 952              		.loc 1 530 0
 953 000a 18B1     		cbz	r0, .L94
 954 000c 0228     		cmp	r0, #2
 955 000e 03D0     		beq	.L95
 531:Src/usbd_conf.c ****     case HAL_OK :
 532:Src/usbd_conf.c ****       usb_status = USBD_OK;
 533:Src/usbd_conf.c ****     break;
 534:Src/usbd_conf.c ****     case HAL_ERROR :
 535:Src/usbd_conf.c ****       usb_status = USBD_FAIL;
 956              		.loc 1 535 0
 957 0010 0220     		movs	r0, #2
 958              	.LVL111:
 959              	.L93:
 536:Src/usbd_conf.c ****     break;
 537:Src/usbd_conf.c ****     case HAL_BUSY :
 538:Src/usbd_conf.c ****       usb_status = USBD_BUSY;
 539:Src/usbd_conf.c ****     break;
 540:Src/usbd_conf.c ****     case HAL_TIMEOUT :
 541:Src/usbd_conf.c ****       usb_status = USBD_FAIL;
 542:Src/usbd_conf.c ****     break;
 543:Src/usbd_conf.c ****     default :
 544:Src/usbd_conf.c ****       usb_status = USBD_FAIL;
 545:Src/usbd_conf.c ****     break;
 546:Src/usbd_conf.c ****   }
 547:Src/usbd_conf.c ****   return usb_status;  
 548:Src/usbd_conf.c **** }
 960              		.loc 1 548 0
 961 0012 08BD     		pop	{r3, pc}
 962              	.LVL112:
 963              	.L94:
 532:Src/usbd_conf.c ****     break;
 964              		.loc 1 532 0
 965 0014 0020     		movs	r0, #0
 966              	.LVL113:
 967 0016 FCE7     		b	.L93
 968              	.LVL114:
 969              	.L95:
 538:Src/usbd_conf.c ****     break;
 970              		.loc 1 538 0
 971 0018 0120     		movs	r0, #1
 972              	.LVL115:
 539:Src/usbd_conf.c ****     case HAL_TIMEOUT :
 973              		.loc 1 539 0
 974 001a FAE7     		b	.L93
 975              		.cfi_endproc
 976              	.LFE156:
 978              		.section	.text.USBD_LL_StallEP,"ax",%progbits
 979              		.align	1
 980              		.global	USBD_LL_StallEP
 981              		.syntax unified
 982              		.thumb
 983              		.thumb_func
 984              		.fpu fpv5-d16
 986              	USBD_LL_StallEP:
 987              	.LFB157:
 549:Src/usbd_conf.c **** 
 550:Src/usbd_conf.c **** /**
ARM GAS  C:\Users\qqffx\AppData\Local\Temp\cca1jCli.s 			page 28


 551:Src/usbd_conf.c ****   * @brief  Sets a Stall condition on an endpoint of the Low Level Driver.
 552:Src/usbd_conf.c ****   * @param  pdev: Device handle
 553:Src/usbd_conf.c ****   * @param  ep_addr: Endpoint number
 554:Src/usbd_conf.c ****   * @retval USBD status
 555:Src/usbd_conf.c ****   */
 556:Src/usbd_conf.c **** USBD_StatusTypeDef USBD_LL_StallEP(USBD_HandleTypeDef *pdev, uint8_t ep_addr)
 557:Src/usbd_conf.c **** {
 988              		.loc 1 557 0
 989              		.cfi_startproc
 990              		@ args = 0, pretend = 0, frame = 0
 991              		@ frame_needed = 0, uses_anonymous_args = 0
 992              	.LVL116:
 993 0000 08B5     		push	{r3, lr}
 994              	.LCFI22:
 995              		.cfi_def_cfa_offset 8
 996              		.cfi_offset 3, -8
 997              		.cfi_offset 14, -4
 998              	.LVL117:
 558:Src/usbd_conf.c ****   HAL_StatusTypeDef hal_status = HAL_OK;
 559:Src/usbd_conf.c ****   USBD_StatusTypeDef usb_status = USBD_OK;
 560:Src/usbd_conf.c ****   
 561:Src/usbd_conf.c ****   hal_status = HAL_PCD_EP_SetStall(pdev->pData, ep_addr);
 999              		.loc 1 561 0
 1000 0002 D0F82002 		ldr	r0, [r0, #544]
 1001              	.LVL118:
 1002 0006 FFF7FEFF 		bl	HAL_PCD_EP_SetStall
 1003              	.LVL119:
 562:Src/usbd_conf.c **** 
 563:Src/usbd_conf.c ****   switch (hal_status) {
 1004              		.loc 1 563 0
 1005 000a 18B1     		cbz	r0, .L101
 1006 000c 0228     		cmp	r0, #2
 1007 000e 03D0     		beq	.L102
 564:Src/usbd_conf.c ****     case HAL_OK :
 565:Src/usbd_conf.c ****       usb_status = USBD_OK;
 566:Src/usbd_conf.c ****     break;
 567:Src/usbd_conf.c ****     case HAL_ERROR :
 568:Src/usbd_conf.c ****       usb_status = USBD_FAIL;
 1008              		.loc 1 568 0
 1009 0010 0220     		movs	r0, #2
 1010              	.LVL120:
 1011              	.L100:
 569:Src/usbd_conf.c ****     break;
 570:Src/usbd_conf.c ****     case HAL_BUSY :
 571:Src/usbd_conf.c ****       usb_status = USBD_BUSY;
 572:Src/usbd_conf.c ****     break;
 573:Src/usbd_conf.c ****     case HAL_TIMEOUT :
 574:Src/usbd_conf.c ****       usb_status = USBD_FAIL;
 575:Src/usbd_conf.c ****     break;
 576:Src/usbd_conf.c ****     default :
 577:Src/usbd_conf.c ****       usb_status = USBD_FAIL;
 578:Src/usbd_conf.c ****     break;
 579:Src/usbd_conf.c ****   }
 580:Src/usbd_conf.c ****   return usb_status;  
 581:Src/usbd_conf.c **** }
 1012              		.loc 1 581 0
 1013 0012 08BD     		pop	{r3, pc}
ARM GAS  C:\Users\qqffx\AppData\Local\Temp\cca1jCli.s 			page 29


 1014              	.LVL121:
 1015              	.L101:
 565:Src/usbd_conf.c ****     break;
 1016              		.loc 1 565 0
 1017 0014 0020     		movs	r0, #0
 1018              	.LVL122:
 1019 0016 FCE7     		b	.L100
 1020              	.LVL123:
 1021              	.L102:
 571:Src/usbd_conf.c ****     break;
 1022              		.loc 1 571 0
 1023 0018 0120     		movs	r0, #1
 1024              	.LVL124:
 572:Src/usbd_conf.c ****     case HAL_TIMEOUT :
 1025              		.loc 1 572 0
 1026 001a FAE7     		b	.L100
 1027              		.cfi_endproc
 1028              	.LFE157:
 1030              		.section	.text.USBD_LL_ClearStallEP,"ax",%progbits
 1031              		.align	1
 1032              		.global	USBD_LL_ClearStallEP
 1033              		.syntax unified
 1034              		.thumb
 1035              		.thumb_func
 1036              		.fpu fpv5-d16
 1038              	USBD_LL_ClearStallEP:
 1039              	.LFB158:
 582:Src/usbd_conf.c **** 
 583:Src/usbd_conf.c **** /**
 584:Src/usbd_conf.c ****   * @brief  Clears a Stall condition on an endpoint of the Low Level Driver.
 585:Src/usbd_conf.c ****   * @param  pdev: Device handle
 586:Src/usbd_conf.c ****   * @param  ep_addr: Endpoint number
 587:Src/usbd_conf.c ****   * @retval USBD status
 588:Src/usbd_conf.c ****   */
 589:Src/usbd_conf.c **** USBD_StatusTypeDef USBD_LL_ClearStallEP(USBD_HandleTypeDef *pdev, uint8_t ep_addr)
 590:Src/usbd_conf.c **** {
 1040              		.loc 1 590 0
 1041              		.cfi_startproc
 1042              		@ args = 0, pretend = 0, frame = 0
 1043              		@ frame_needed = 0, uses_anonymous_args = 0
 1044              	.LVL125:
 1045 0000 08B5     		push	{r3, lr}
 1046              	.LCFI23:
 1047              		.cfi_def_cfa_offset 8
 1048              		.cfi_offset 3, -8
 1049              		.cfi_offset 14, -4
 1050              	.LVL126:
 591:Src/usbd_conf.c ****   HAL_StatusTypeDef hal_status = HAL_OK;
 592:Src/usbd_conf.c ****   USBD_StatusTypeDef usb_status = USBD_OK;
 593:Src/usbd_conf.c ****   
 594:Src/usbd_conf.c ****   hal_status = HAL_PCD_EP_ClrStall(pdev->pData, ep_addr);  
 1051              		.loc 1 594 0
 1052 0002 D0F82002 		ldr	r0, [r0, #544]
 1053              	.LVL127:
 1054 0006 FFF7FEFF 		bl	HAL_PCD_EP_ClrStall
 1055              	.LVL128:
 595:Src/usbd_conf.c ****      
ARM GAS  C:\Users\qqffx\AppData\Local\Temp\cca1jCli.s 			page 30


 596:Src/usbd_conf.c ****   switch (hal_status) {
 1056              		.loc 1 596 0
 1057 000a 18B1     		cbz	r0, .L108
 1058 000c 0228     		cmp	r0, #2
 1059 000e 03D0     		beq	.L109
 597:Src/usbd_conf.c ****     case HAL_OK :
 598:Src/usbd_conf.c ****       usb_status = USBD_OK;
 599:Src/usbd_conf.c ****     break;
 600:Src/usbd_conf.c ****     case HAL_ERROR :
 601:Src/usbd_conf.c ****       usb_status = USBD_FAIL;
 1060              		.loc 1 601 0
 1061 0010 0220     		movs	r0, #2
 1062              	.LVL129:
 1063              	.L107:
 602:Src/usbd_conf.c ****     break;
 603:Src/usbd_conf.c ****     case HAL_BUSY :
 604:Src/usbd_conf.c ****       usb_status = USBD_BUSY;
 605:Src/usbd_conf.c ****     break;
 606:Src/usbd_conf.c ****     case HAL_TIMEOUT :
 607:Src/usbd_conf.c ****       usb_status = USBD_FAIL;
 608:Src/usbd_conf.c ****     break;
 609:Src/usbd_conf.c ****     default :
 610:Src/usbd_conf.c ****       usb_status = USBD_FAIL;
 611:Src/usbd_conf.c ****     break;
 612:Src/usbd_conf.c ****   }
 613:Src/usbd_conf.c ****   return usb_status; 
 614:Src/usbd_conf.c **** }
 1064              		.loc 1 614 0
 1065 0012 08BD     		pop	{r3, pc}
 1066              	.LVL130:
 1067              	.L108:
 598:Src/usbd_conf.c ****     break;
 1068              		.loc 1 598 0
 1069 0014 0020     		movs	r0, #0
 1070              	.LVL131:
 1071 0016 FCE7     		b	.L107
 1072              	.LVL132:
 1073              	.L109:
 604:Src/usbd_conf.c ****     break;
 1074              		.loc 1 604 0
 1075 0018 0120     		movs	r0, #1
 1076              	.LVL133:
 605:Src/usbd_conf.c ****     case HAL_TIMEOUT :
 1077              		.loc 1 605 0
 1078 001a FAE7     		b	.L107
 1079              		.cfi_endproc
 1080              	.LFE158:
 1082              		.section	.text.USBD_LL_IsStallEP,"ax",%progbits
 1083              		.align	1
 1084              		.global	USBD_LL_IsStallEP
 1085              		.syntax unified
 1086              		.thumb
 1087              		.thumb_func
 1088              		.fpu fpv5-d16
 1090              	USBD_LL_IsStallEP:
 1091              	.LFB159:
 615:Src/usbd_conf.c **** 
ARM GAS  C:\Users\qqffx\AppData\Local\Temp\cca1jCli.s 			page 31


 616:Src/usbd_conf.c **** /**
 617:Src/usbd_conf.c ****   * @brief  Returns Stall condition.
 618:Src/usbd_conf.c ****   * @param  pdev: Device handle
 619:Src/usbd_conf.c ****   * @param  ep_addr: Endpoint number
 620:Src/usbd_conf.c ****   * @retval Stall (1: Yes, 0: No)
 621:Src/usbd_conf.c ****   */
 622:Src/usbd_conf.c **** uint8_t USBD_LL_IsStallEP(USBD_HandleTypeDef *pdev, uint8_t ep_addr)
 623:Src/usbd_conf.c **** {
 1092              		.loc 1 623 0
 1093              		.cfi_startproc
 1094              		@ args = 0, pretend = 0, frame = 0
 1095              		@ frame_needed = 0, uses_anonymous_args = 0
 1096              		@ link register save eliminated.
 1097              	.LVL134:
 624:Src/usbd_conf.c ****   PCD_HandleTypeDef *hpcd = (PCD_HandleTypeDef*) pdev->pData;
 1098              		.loc 1 624 0
 1099 0000 D0F82032 		ldr	r3, [r0, #544]
 1100              	.LVL135:
 625:Src/usbd_conf.c ****   
 626:Src/usbd_conf.c ****   if((ep_addr & 0x80) == 0x80)
 1101              		.loc 1 626 0
 1102 0004 11F0800F 		tst	r1, #128
 1103 0008 08D1     		bne	.L116
 627:Src/usbd_conf.c ****   {
 628:Src/usbd_conf.c ****     return hpcd->IN_ep[ep_addr & 0x7F].is_stall; 
 629:Src/usbd_conf.c ****   }
 630:Src/usbd_conf.c ****   else
 631:Src/usbd_conf.c ****   {
 632:Src/usbd_conf.c ****     return hpcd->OUT_ep[ep_addr & 0x7F].is_stall; 
 1104              		.loc 1 632 0
 1105 000a 01F07F01 		and	r1, r1, #127
 1106              	.LVL136:
 1107 000e C1EBC101 		rsb	r1, r1, r1, lsl #3
 1108 0012 8A00     		lsls	r2, r1, #2
 1109 0014 1344     		add	r3, r3, r2
 1110              	.LVL137:
 1111 0016 93F8FA01 		ldrb	r0, [r3, #506]	@ zero_extendqisi2
 1112              	.LVL138:
 633:Src/usbd_conf.c ****   }
 634:Src/usbd_conf.c **** }
 1113              		.loc 1 634 0
 1114 001a 7047     		bx	lr
 1115              	.LVL139:
 1116              	.L116:
 628:Src/usbd_conf.c ****   }
 1117              		.loc 1 628 0
 1118 001c 01F07F01 		and	r1, r1, #127
 1119              	.LVL140:
 1120 0020 C1EBC101 		rsb	r1, r1, r1, lsl #3
 1121 0024 8A00     		lsls	r2, r1, #2
 1122 0026 1344     		add	r3, r3, r2
 1123              	.LVL141:
 1124 0028 93F83A00 		ldrb	r0, [r3, #58]	@ zero_extendqisi2
 1125              	.LVL142:
 1126 002c 7047     		bx	lr
 1127              		.cfi_endproc
 1128              	.LFE159:
ARM GAS  C:\Users\qqffx\AppData\Local\Temp\cca1jCli.s 			page 32


 1130              		.section	.text.USBD_LL_SetUSBAddress,"ax",%progbits
 1131              		.align	1
 1132              		.global	USBD_LL_SetUSBAddress
 1133              		.syntax unified
 1134              		.thumb
 1135              		.thumb_func
 1136              		.fpu fpv5-d16
 1138              	USBD_LL_SetUSBAddress:
 1139              	.LFB160:
 635:Src/usbd_conf.c **** 
 636:Src/usbd_conf.c **** /**
 637:Src/usbd_conf.c ****   * @brief  Assigns a USB address to the device.
 638:Src/usbd_conf.c ****   * @param  pdev: Device handle
 639:Src/usbd_conf.c ****   * @param  dev_addr: Device address
 640:Src/usbd_conf.c ****   * @retval USBD status
 641:Src/usbd_conf.c ****   */
 642:Src/usbd_conf.c **** USBD_StatusTypeDef USBD_LL_SetUSBAddress(USBD_HandleTypeDef *pdev, uint8_t dev_addr)
 643:Src/usbd_conf.c **** {
 1140              		.loc 1 643 0
 1141              		.cfi_startproc
 1142              		@ args = 0, pretend = 0, frame = 0
 1143              		@ frame_needed = 0, uses_anonymous_args = 0
 1144              	.LVL143:
 1145 0000 08B5     		push	{r3, lr}
 1146              	.LCFI24:
 1147              		.cfi_def_cfa_offset 8
 1148              		.cfi_offset 3, -8
 1149              		.cfi_offset 14, -4
 1150              	.LVL144:
 644:Src/usbd_conf.c ****   HAL_StatusTypeDef hal_status = HAL_OK;
 645:Src/usbd_conf.c ****   USBD_StatusTypeDef usb_status = USBD_OK;
 646:Src/usbd_conf.c ****   
 647:Src/usbd_conf.c ****   hal_status = HAL_PCD_SetAddress(pdev->pData, dev_addr);
 1151              		.loc 1 647 0
 1152 0002 D0F82002 		ldr	r0, [r0, #544]
 1153              	.LVL145:
 1154 0006 FFF7FEFF 		bl	HAL_PCD_SetAddress
 1155              	.LVL146:
 648:Src/usbd_conf.c ****      
 649:Src/usbd_conf.c ****   switch (hal_status) {
 1156              		.loc 1 649 0
 1157 000a 18B1     		cbz	r0, .L119
 1158 000c 0228     		cmp	r0, #2
 1159 000e 03D0     		beq	.L120
 650:Src/usbd_conf.c ****     case HAL_OK :
 651:Src/usbd_conf.c ****       usb_status = USBD_OK;
 652:Src/usbd_conf.c ****     break;
 653:Src/usbd_conf.c ****     case HAL_ERROR :
 654:Src/usbd_conf.c ****       usb_status = USBD_FAIL;
 1160              		.loc 1 654 0
 1161 0010 0220     		movs	r0, #2
 1162              	.LVL147:
 1163              	.L118:
 655:Src/usbd_conf.c ****     break;
 656:Src/usbd_conf.c ****     case HAL_BUSY :
 657:Src/usbd_conf.c ****       usb_status = USBD_BUSY;
 658:Src/usbd_conf.c ****     break;
ARM GAS  C:\Users\qqffx\AppData\Local\Temp\cca1jCli.s 			page 33


 659:Src/usbd_conf.c ****     case HAL_TIMEOUT :
 660:Src/usbd_conf.c ****       usb_status = USBD_FAIL;
 661:Src/usbd_conf.c ****     break;
 662:Src/usbd_conf.c ****     default :
 663:Src/usbd_conf.c ****       usb_status = USBD_FAIL;
 664:Src/usbd_conf.c ****     break;
 665:Src/usbd_conf.c ****   }
 666:Src/usbd_conf.c ****   return usb_status;  
 667:Src/usbd_conf.c **** }
 1164              		.loc 1 667 0
 1165 0012 08BD     		pop	{r3, pc}
 1166              	.LVL148:
 1167              	.L119:
 651:Src/usbd_conf.c ****     break;
 1168              		.loc 1 651 0
 1169 0014 0020     		movs	r0, #0
 1170              	.LVL149:
 1171 0016 FCE7     		b	.L118
 1172              	.LVL150:
 1173              	.L120:
 657:Src/usbd_conf.c ****     break;
 1174              		.loc 1 657 0
 1175 0018 0120     		movs	r0, #1
 1176              	.LVL151:
 658:Src/usbd_conf.c ****     case HAL_TIMEOUT :
 1177              		.loc 1 658 0
 1178 001a FAE7     		b	.L118
 1179              		.cfi_endproc
 1180              	.LFE160:
 1182              		.section	.text.USBD_LL_Transmit,"ax",%progbits
 1183              		.align	1
 1184              		.global	USBD_LL_Transmit
 1185              		.syntax unified
 1186              		.thumb
 1187              		.thumb_func
 1188              		.fpu fpv5-d16
 1190              	USBD_LL_Transmit:
 1191              	.LFB161:
 668:Src/usbd_conf.c **** 
 669:Src/usbd_conf.c **** /**
 670:Src/usbd_conf.c ****   * @brief  Transmits data over an endpoint.
 671:Src/usbd_conf.c ****   * @param  pdev: Device handle
 672:Src/usbd_conf.c ****   * @param  ep_addr: Endpoint number
 673:Src/usbd_conf.c ****   * @param  pbuf: Pointer to data to be sent
 674:Src/usbd_conf.c ****   * @param  size: Data size    
 675:Src/usbd_conf.c ****   * @retval USBD status
 676:Src/usbd_conf.c ****   */
 677:Src/usbd_conf.c **** USBD_StatusTypeDef USBD_LL_Transmit(USBD_HandleTypeDef *pdev, uint8_t ep_addr, uint8_t *pbuf, uint1
 678:Src/usbd_conf.c **** {
 1192              		.loc 1 678 0
 1193              		.cfi_startproc
 1194              		@ args = 0, pretend = 0, frame = 0
 1195              		@ frame_needed = 0, uses_anonymous_args = 0
 1196              	.LVL152:
 1197 0000 08B5     		push	{r3, lr}
 1198              	.LCFI25:
 1199              		.cfi_def_cfa_offset 8
ARM GAS  C:\Users\qqffx\AppData\Local\Temp\cca1jCli.s 			page 34


 1200              		.cfi_offset 3, -8
 1201              		.cfi_offset 14, -4
 1202              	.LVL153:
 679:Src/usbd_conf.c ****   HAL_StatusTypeDef hal_status = HAL_OK;
 680:Src/usbd_conf.c ****   USBD_StatusTypeDef usb_status = USBD_OK;
 681:Src/usbd_conf.c **** 
 682:Src/usbd_conf.c ****   hal_status = HAL_PCD_EP_Transmit(pdev->pData, ep_addr, pbuf, size);
 1203              		.loc 1 682 0
 1204 0002 D0F82002 		ldr	r0, [r0, #544]
 1205              	.LVL154:
 1206 0006 FFF7FEFF 		bl	HAL_PCD_EP_Transmit
 1207              	.LVL155:
 683:Src/usbd_conf.c ****      
 684:Src/usbd_conf.c ****   switch (hal_status) {
 1208              		.loc 1 684 0
 1209 000a 18B1     		cbz	r0, .L126
 1210 000c 0228     		cmp	r0, #2
 1211 000e 03D0     		beq	.L127
 685:Src/usbd_conf.c ****     case HAL_OK :
 686:Src/usbd_conf.c ****       usb_status = USBD_OK;
 687:Src/usbd_conf.c ****     break;
 688:Src/usbd_conf.c ****     case HAL_ERROR :
 689:Src/usbd_conf.c ****       usb_status = USBD_FAIL;
 1212              		.loc 1 689 0
 1213 0010 0220     		movs	r0, #2
 1214              	.LVL156:
 1215              	.L125:
 690:Src/usbd_conf.c ****     break;
 691:Src/usbd_conf.c ****     case HAL_BUSY :
 692:Src/usbd_conf.c ****       usb_status = USBD_BUSY;
 693:Src/usbd_conf.c ****     break;
 694:Src/usbd_conf.c ****     case HAL_TIMEOUT :
 695:Src/usbd_conf.c ****       usb_status = USBD_FAIL;
 696:Src/usbd_conf.c ****     break;
 697:Src/usbd_conf.c ****     default :
 698:Src/usbd_conf.c ****       usb_status = USBD_FAIL;
 699:Src/usbd_conf.c ****     break;
 700:Src/usbd_conf.c ****   }
 701:Src/usbd_conf.c ****   return usb_status;    
 702:Src/usbd_conf.c **** }
 1216              		.loc 1 702 0
 1217 0012 08BD     		pop	{r3, pc}
 1218              	.LVL157:
 1219              	.L126:
 686:Src/usbd_conf.c ****     break;
 1220              		.loc 1 686 0
 1221 0014 0020     		movs	r0, #0
 1222              	.LVL158:
 1223 0016 FCE7     		b	.L125
 1224              	.LVL159:
 1225              	.L127:
 692:Src/usbd_conf.c ****     break;
 1226              		.loc 1 692 0
 1227 0018 0120     		movs	r0, #1
 1228              	.LVL160:
 693:Src/usbd_conf.c ****     case HAL_TIMEOUT :
 1229              		.loc 1 693 0
ARM GAS  C:\Users\qqffx\AppData\Local\Temp\cca1jCli.s 			page 35


 1230 001a FAE7     		b	.L125
 1231              		.cfi_endproc
 1232              	.LFE161:
 1234              		.section	.text.USBD_LL_PrepareReceive,"ax",%progbits
 1235              		.align	1
 1236              		.global	USBD_LL_PrepareReceive
 1237              		.syntax unified
 1238              		.thumb
 1239              		.thumb_func
 1240              		.fpu fpv5-d16
 1242              	USBD_LL_PrepareReceive:
 1243              	.LFB162:
 703:Src/usbd_conf.c **** 
 704:Src/usbd_conf.c **** /**
 705:Src/usbd_conf.c ****   * @brief  Prepares an endpoint for reception.
 706:Src/usbd_conf.c ****   * @param  pdev: Device handle
 707:Src/usbd_conf.c ****   * @param  ep_addr: Endpoint number
 708:Src/usbd_conf.c ****   * @param  pbuf: Pointer to data to be received
 709:Src/usbd_conf.c ****   * @param  size: Data size
 710:Src/usbd_conf.c ****   * @retval USBD status
 711:Src/usbd_conf.c ****   */
 712:Src/usbd_conf.c **** USBD_StatusTypeDef USBD_LL_PrepareReceive(USBD_HandleTypeDef *pdev, uint8_t ep_addr, uint8_t *pbuf,
 713:Src/usbd_conf.c **** {
 1244              		.loc 1 713 0
 1245              		.cfi_startproc
 1246              		@ args = 0, pretend = 0, frame = 0
 1247              		@ frame_needed = 0, uses_anonymous_args = 0
 1248              	.LVL161:
 1249 0000 08B5     		push	{r3, lr}
 1250              	.LCFI26:
 1251              		.cfi_def_cfa_offset 8
 1252              		.cfi_offset 3, -8
 1253              		.cfi_offset 14, -4
 1254              	.LVL162:
 714:Src/usbd_conf.c ****   HAL_StatusTypeDef hal_status = HAL_OK;
 715:Src/usbd_conf.c ****   USBD_StatusTypeDef usb_status = USBD_OK;
 716:Src/usbd_conf.c **** 
 717:Src/usbd_conf.c ****   hal_status = HAL_PCD_EP_Receive(pdev->pData, ep_addr, pbuf, size);
 1255              		.loc 1 717 0
 1256 0002 D0F82002 		ldr	r0, [r0, #544]
 1257              	.LVL163:
 1258 0006 FFF7FEFF 		bl	HAL_PCD_EP_Receive
 1259              	.LVL164:
 718:Src/usbd_conf.c ****      
 719:Src/usbd_conf.c ****   switch (hal_status) {
 1260              		.loc 1 719 0
 1261 000a 18B1     		cbz	r0, .L133
 1262 000c 0228     		cmp	r0, #2
 1263 000e 03D0     		beq	.L134
 720:Src/usbd_conf.c ****     case HAL_OK :
 721:Src/usbd_conf.c ****       usb_status = USBD_OK;
 722:Src/usbd_conf.c ****     break;
 723:Src/usbd_conf.c ****     case HAL_ERROR :
 724:Src/usbd_conf.c ****       usb_status = USBD_FAIL;
 1264              		.loc 1 724 0
 1265 0010 0220     		movs	r0, #2
 1266              	.LVL165:
ARM GAS  C:\Users\qqffx\AppData\Local\Temp\cca1jCli.s 			page 36


 1267              	.L132:
 725:Src/usbd_conf.c ****     break;
 726:Src/usbd_conf.c ****     case HAL_BUSY :
 727:Src/usbd_conf.c ****       usb_status = USBD_BUSY;
 728:Src/usbd_conf.c ****     break;
 729:Src/usbd_conf.c ****     case HAL_TIMEOUT :
 730:Src/usbd_conf.c ****       usb_status = USBD_FAIL;
 731:Src/usbd_conf.c ****     break;
 732:Src/usbd_conf.c ****     default :
 733:Src/usbd_conf.c ****       usb_status = USBD_FAIL;
 734:Src/usbd_conf.c ****     break;
 735:Src/usbd_conf.c ****   }
 736:Src/usbd_conf.c ****   return usb_status; 
 737:Src/usbd_conf.c **** }
 1268              		.loc 1 737 0
 1269 0012 08BD     		pop	{r3, pc}
 1270              	.LVL166:
 1271              	.L133:
 721:Src/usbd_conf.c ****     break;
 1272              		.loc 1 721 0
 1273 0014 0020     		movs	r0, #0
 1274              	.LVL167:
 1275 0016 FCE7     		b	.L132
 1276              	.LVL168:
 1277              	.L134:
 727:Src/usbd_conf.c ****     break;
 1278              		.loc 1 727 0
 1279 0018 0120     		movs	r0, #1
 1280              	.LVL169:
 728:Src/usbd_conf.c ****     case HAL_TIMEOUT :
 1281              		.loc 1 728 0
 1282 001a FAE7     		b	.L132
 1283              		.cfi_endproc
 1284              	.LFE162:
 1286              		.section	.text.USBD_LL_GetRxDataSize,"ax",%progbits
 1287              		.align	1
 1288              		.global	USBD_LL_GetRxDataSize
 1289              		.syntax unified
 1290              		.thumb
 1291              		.thumb_func
 1292              		.fpu fpv5-d16
 1294              	USBD_LL_GetRxDataSize:
 1295              	.LFB163:
 738:Src/usbd_conf.c **** 
 739:Src/usbd_conf.c **** /**
 740:Src/usbd_conf.c ****   * @brief  Returns the last transfered packet size.
 741:Src/usbd_conf.c ****   * @param  pdev: Device handle
 742:Src/usbd_conf.c ****   * @param  ep_addr: Endpoint number
 743:Src/usbd_conf.c ****   * @retval Recived Data Size
 744:Src/usbd_conf.c ****   */
 745:Src/usbd_conf.c **** uint32_t USBD_LL_GetRxDataSize(USBD_HandleTypeDef *pdev, uint8_t ep_addr)
 746:Src/usbd_conf.c **** {
 1296              		.loc 1 746 0
 1297              		.cfi_startproc
 1298              		@ args = 0, pretend = 0, frame = 0
 1299              		@ frame_needed = 0, uses_anonymous_args = 0
 1300              	.LVL170:
ARM GAS  C:\Users\qqffx\AppData\Local\Temp\cca1jCli.s 			page 37


 1301 0000 08B5     		push	{r3, lr}
 1302              	.LCFI27:
 1303              		.cfi_def_cfa_offset 8
 1304              		.cfi_offset 3, -8
 1305              		.cfi_offset 14, -4
 747:Src/usbd_conf.c ****   return HAL_PCD_EP_GetRxCount((PCD_HandleTypeDef*) pdev->pData, ep_addr);
 1306              		.loc 1 747 0
 1307 0002 D0F82002 		ldr	r0, [r0, #544]
 1308              	.LVL171:
 1309 0006 FFF7FEFF 		bl	HAL_PCD_EP_GetRxCount
 1310              	.LVL172:
 748:Src/usbd_conf.c **** }
 1311              		.loc 1 748 0
 1312 000a 08BD     		pop	{r3, pc}
 1313              		.cfi_endproc
 1314              	.LFE163:
 1316              		.section	.text.USBD_LL_Delay,"ax",%progbits
 1317              		.align	1
 1318              		.global	USBD_LL_Delay
 1319              		.syntax unified
 1320              		.thumb
 1321              		.thumb_func
 1322              		.fpu fpv5-d16
 1324              	USBD_LL_Delay:
 1325              	.LFB164:
 749:Src/usbd_conf.c **** 
 750:Src/usbd_conf.c **** /**
 751:Src/usbd_conf.c ****   * @brief  Delays routine for the USB device library.
 752:Src/usbd_conf.c ****   * @param  Delay: Delay in ms
 753:Src/usbd_conf.c ****   * @retval None
 754:Src/usbd_conf.c ****   */
 755:Src/usbd_conf.c **** void USBD_LL_Delay(uint32_t Delay)
 756:Src/usbd_conf.c **** {
 1326              		.loc 1 756 0
 1327              		.cfi_startproc
 1328              		@ args = 0, pretend = 0, frame = 0
 1329              		@ frame_needed = 0, uses_anonymous_args = 0
 1330              	.LVL173:
 1331 0000 08B5     		push	{r3, lr}
 1332              	.LCFI28:
 1333              		.cfi_def_cfa_offset 8
 1334              		.cfi_offset 3, -8
 1335              		.cfi_offset 14, -4
 757:Src/usbd_conf.c ****   HAL_Delay(Delay);
 1336              		.loc 1 757 0
 1337 0002 FFF7FEFF 		bl	HAL_Delay
 1338              	.LVL174:
 758:Src/usbd_conf.c **** }
 1339              		.loc 1 758 0
 1340 0006 08BD     		pop	{r3, pc}
 1341              		.cfi_endproc
 1342              	.LFE164:
 1344              		.comm	hpcd_USB_OTG_FS,1024,4
 1345              		.section	.rodata.USBD_LL_Init.str1.4,"aMS",%progbits,1
 1346              		.align	2
 1347              	.LC0:
 1348 0000 5372632F 		.ascii	"Src/usbd_conf.c\000"
ARM GAS  C:\Users\qqffx\AppData\Local\Temp\cca1jCli.s 			page 38


 1348      75736264 
 1348      5F636F6E 
 1348      662E6300 
 1349              		.text
 1350              	.Letext0:
 1351              		.file 2 "c:\\gcc\\arm-none-eabi\\include\\machine\\_default_types.h"
 1352              		.file 3 "c:\\gcc\\arm-none-eabi\\include\\sys\\_stdint.h"
 1353              		.file 4 "Drivers/CMSIS/Include/core_cm7.h"
 1354              		.file 5 "Drivers/CMSIS/Device/ST/STM32H7xx/Include/system_stm32h7xx.h"
 1355              		.file 6 "Drivers/CMSIS/Device/ST/STM32H7xx/Include/stm32h743xx.h"
 1356              		.file 7 "Drivers/CMSIS/Device/ST/STM32H7xx/Include/stm32h7xx.h"
 1357              		.file 8 "c:\\gcc\\arm-none-eabi\\include\\sys\\lock.h"
 1358              		.file 9 "c:\\gcc\\arm-none-eabi\\include\\sys\\_types.h"
 1359              		.file 10 "c:\\gcc\\lib\\gcc\\arm-none-eabi\\7.3.1\\include\\stddef.h"
 1360              		.file 11 "c:\\gcc\\arm-none-eabi\\include\\sys\\reent.h"
 1361              		.file 12 "Drivers/STM32H7xx_HAL_Driver/Inc/stm32h7xx_hal_def.h"
 1362              		.file 13 "Drivers/STM32H7xx_HAL_Driver/Inc/stm32h7xx_hal_gpio.h"
 1363              		.file 14 "Drivers/STM32H7xx_HAL_Driver/Inc/stm32h7xx_ll_usb.h"
 1364              		.file 15 "Drivers/STM32H7xx_HAL_Driver/Inc/stm32h7xx_hal_pcd.h"
 1365              		.file 16 "c:\\gcc\\arm-none-eabi\\include\\stdlib.h"
 1366              		.file 17 "Middlewares/ST/STM32_USB_Device_Library/Core/Inc/usbd_def.h"
 1367              		.file 18 "Drivers/STM32H7xx_HAL_Driver/Inc/stm32h7xx_hal_uart.h"
 1368              		.file 19 "Drivers/STM32H7xx_HAL_Driver/Inc/stm32h7xx_hal.h"
 1369              		.file 20 "Drivers/STM32H7xx_HAL_Driver/Inc/stm32h7xx_hal_pcd_ex.h"
 1370              		.file 21 "Middlewares/ST/STM32_USB_Device_Library/Core/Inc/usbd_core.h"
 1371              		.file 22 "Drivers/STM32H7xx_HAL_Driver/Inc/stm32h7xx_hal_cortex.h"
ARM GAS  C:\Users\qqffx\AppData\Local\Temp\cca1jCli.s 			page 39

