ARM GAS  C:\Users\qqffx\AppData\Local\Temp\ccXdAZGD.s 			page 1


   1              		.cpu cortex-m7
   2              		.eabi_attribute 28, 1
   3              		.eabi_attribute 20, 1
   4              		.eabi_attribute 21, 1
   5              		.eabi_attribute 23, 3
   6              		.eabi_attribute 24, 1
   7              		.eabi_attribute 25, 1
   8              		.eabi_attribute 26, 1
   9              		.eabi_attribute 30, 1
  10              		.eabi_attribute 34, 1
  11              		.eabi_attribute 18, 4
  12              		.file	"usbd_desc.c"
  13              		.text
  14              	.Ltext0:
  15              		.cfi_sections	.debug_frame
  16              		.section	.text.USBD_FS_DeviceDescriptor,"ax",%progbits
  17              		.align	1
  18              		.global	USBD_FS_DeviceDescriptor
  19              		.syntax unified
  20              		.thumb
  21              		.thumb_func
  22              		.fpu fpv5-d16
  24              	USBD_FS_DeviceDescriptor:
  25              	.LFB137:
  26              		.file 1 "Src/usbd_desc.c"
   1:Src/usbd_desc.c **** /**
   2:Src/usbd_desc.c ****   ******************************************************************************
   3:Src/usbd_desc.c ****   * @file           : usbd_desc.c
   4:Src/usbd_desc.c ****   * @version        : v1.0_Cube
   5:Src/usbd_desc.c ****   * @brief          : This file implements the USB device descriptors.
   6:Src/usbd_desc.c ****   ******************************************************************************
   7:Src/usbd_desc.c ****   * This notice applies to any and all portions of this file
   8:Src/usbd_desc.c ****   * that are not between comment pairs USER CODE BEGIN and
   9:Src/usbd_desc.c ****   * USER CODE END. Other portions of this file, whether 
  10:Src/usbd_desc.c ****   * inserted by the user or by software development tools
  11:Src/usbd_desc.c ****   * are owned by their respective copyright owners.
  12:Src/usbd_desc.c ****   *
  13:Src/usbd_desc.c ****   * Copyright (c) 2018 STMicroelectronics International N.V. 
  14:Src/usbd_desc.c ****   * All rights reserved.
  15:Src/usbd_desc.c ****   *
  16:Src/usbd_desc.c ****   * Redistribution and use in source and binary forms, with or without 
  17:Src/usbd_desc.c ****   * modification, are permitted, provided that the following conditions are met:
  18:Src/usbd_desc.c ****   *
  19:Src/usbd_desc.c ****   * 1. Redistribution of source code must retain the above copyright notice, 
  20:Src/usbd_desc.c ****   *    this list of conditions and the following disclaimer.
  21:Src/usbd_desc.c ****   * 2. Redistributions in binary form must reproduce the above copyright notice,
  22:Src/usbd_desc.c ****   *    this list of conditions and the following disclaimer in the documentation
  23:Src/usbd_desc.c ****   *    and/or other materials provided with the distribution.
  24:Src/usbd_desc.c ****   * 3. Neither the name of STMicroelectronics nor the names of other 
  25:Src/usbd_desc.c ****   *    contributors to this software may be used to endorse or promote products 
  26:Src/usbd_desc.c ****   *    derived from this software without specific written permission.
  27:Src/usbd_desc.c ****   * 4. This software, including modifications and/or derivative works of this 
  28:Src/usbd_desc.c ****   *    software, must execute solely and exclusively on microcontroller or
  29:Src/usbd_desc.c ****   *    microprocessor devices manufactured by or for STMicroelectronics.
  30:Src/usbd_desc.c ****   * 5. Redistribution and use of this software other than as permitted under 
  31:Src/usbd_desc.c ****   *    this license is void and will automatically terminate your rights under 
  32:Src/usbd_desc.c ****   *    this license. 
ARM GAS  C:\Users\qqffx\AppData\Local\Temp\ccXdAZGD.s 			page 2


  33:Src/usbd_desc.c ****   *
  34:Src/usbd_desc.c ****   * THIS SOFTWARE IS PROVIDED BY STMICROELECTRONICS AND CONTRIBUTORS "AS IS" 
  35:Src/usbd_desc.c ****   * AND ANY EXPRESS, IMPLIED OR STATUTORY WARRANTIES, INCLUDING, BUT NOT 
  36:Src/usbd_desc.c ****   * LIMITED TO, THE IMPLIED WARRANTIES OF MERCHANTABILITY, FITNESS FOR A 
  37:Src/usbd_desc.c ****   * PARTICULAR PURPOSE AND NON-INFRINGEMENT OF THIRD PARTY INTELLECTUAL PROPERTY
  38:Src/usbd_desc.c ****   * RIGHTS ARE DISCLAIMED TO THE FULLEST EXTENT PERMITTED BY LAW. IN NO EVENT 
  39:Src/usbd_desc.c ****   * SHALL STMICROELECTRONICS OR CONTRIBUTORS BE LIABLE FOR ANY DIRECT, INDIRECT,
  40:Src/usbd_desc.c ****   * INCIDENTAL, SPECIAL, EXEMPLARY, OR CONSEQUENTIAL DAMAGES (INCLUDING, BUT NOT
  41:Src/usbd_desc.c ****   * LIMITED TO, PROCUREMENT OF SUBSTITUTE GOODS OR SERVICES; LOSS OF USE, DATA, 
  42:Src/usbd_desc.c ****   * OR PROFITS; OR BUSINESS INTERRUPTION) HOWEVER CAUSED AND ON ANY THEORY OF 
  43:Src/usbd_desc.c ****   * LIABILITY, WHETHER IN CONTRACT, STRICT LIABILITY, OR TORT (INCLUDING 
  44:Src/usbd_desc.c ****   * NEGLIGENCE OR OTHERWISE) ARISING IN ANY WAY OUT OF THE USE OF THIS SOFTWARE,
  45:Src/usbd_desc.c ****   * EVEN IF ADVISED OF THE POSSIBILITY OF SUCH DAMAGE.
  46:Src/usbd_desc.c ****   *
  47:Src/usbd_desc.c ****   ******************************************************************************
  48:Src/usbd_desc.c ****   */
  49:Src/usbd_desc.c **** 
  50:Src/usbd_desc.c **** /* Includes ------------------------------------------------------------------*/
  51:Src/usbd_desc.c **** #include "usbd_core.h"
  52:Src/usbd_desc.c **** #include "usbd_desc.h"
  53:Src/usbd_desc.c **** #include "usbd_conf.h"
  54:Src/usbd_desc.c **** 
  55:Src/usbd_desc.c **** /* USER CODE BEGIN INCLUDE */
  56:Src/usbd_desc.c **** 
  57:Src/usbd_desc.c **** /* USER CODE END INCLUDE */
  58:Src/usbd_desc.c **** 
  59:Src/usbd_desc.c **** /* Private typedef -----------------------------------------------------------*/
  60:Src/usbd_desc.c **** /* Private define ------------------------------------------------------------*/
  61:Src/usbd_desc.c **** /* Private macro -------------------------------------------------------------*/
  62:Src/usbd_desc.c **** 
  63:Src/usbd_desc.c **** /* USER CODE BEGIN PV */
  64:Src/usbd_desc.c **** /* Private variables ---------------------------------------------------------*/
  65:Src/usbd_desc.c **** 
  66:Src/usbd_desc.c **** /* USER CODE END PV */
  67:Src/usbd_desc.c **** 
  68:Src/usbd_desc.c **** /** @addtogroup STM32_USB_OTG_DEVICE_LIBRARY
  69:Src/usbd_desc.c ****   * @{
  70:Src/usbd_desc.c ****   */
  71:Src/usbd_desc.c **** 
  72:Src/usbd_desc.c **** /** @addtogroup USBD_DESC
  73:Src/usbd_desc.c ****   * @{
  74:Src/usbd_desc.c ****   */
  75:Src/usbd_desc.c **** 
  76:Src/usbd_desc.c **** /** @defgroup USBD_DESC_Private_TypesDefinitions USBD_DESC_Private_TypesDefinitions
  77:Src/usbd_desc.c ****   * @brief Private types.
  78:Src/usbd_desc.c ****   * @{
  79:Src/usbd_desc.c ****   */
  80:Src/usbd_desc.c **** 
  81:Src/usbd_desc.c **** /* USER CODE BEGIN PRIVATE_TYPES */
  82:Src/usbd_desc.c **** 
  83:Src/usbd_desc.c **** /* USER CODE END PRIVATE_TYPES */
  84:Src/usbd_desc.c **** 
  85:Src/usbd_desc.c **** /**
  86:Src/usbd_desc.c ****   * @}
  87:Src/usbd_desc.c ****   */
  88:Src/usbd_desc.c **** 
  89:Src/usbd_desc.c **** /** @defgroup USBD_DESC_Private_Defines USBD_DESC_Private_Defines
ARM GAS  C:\Users\qqffx\AppData\Local\Temp\ccXdAZGD.s 			page 3


  90:Src/usbd_desc.c ****   * @brief Private defines.
  91:Src/usbd_desc.c ****   * @{
  92:Src/usbd_desc.c ****   */
  93:Src/usbd_desc.c **** 
  94:Src/usbd_desc.c **** #define USBD_VID     1155
  95:Src/usbd_desc.c **** #define USBD_LANGID_STRING     1033
  96:Src/usbd_desc.c **** #define USBD_MANUFACTURER_STRING     "STMicroelectronics"
  97:Src/usbd_desc.c **** #define USBD_PID_FS     22336
  98:Src/usbd_desc.c **** #define USBD_PRODUCT_STRING_FS     "STM32 Virtual ComPort"
  99:Src/usbd_desc.c **** #define USBD_SERIALNUMBER_STRING_FS     "00000000001A"
 100:Src/usbd_desc.c **** #define USBD_CONFIGURATION_STRING_FS     "CDC Config"
 101:Src/usbd_desc.c **** #define USBD_INTERFACE_STRING_FS     "CDC Interface"
 102:Src/usbd_desc.c **** 
 103:Src/usbd_desc.c **** /* USER CODE BEGIN PRIVATE_DEFINES */
 104:Src/usbd_desc.c **** 
 105:Src/usbd_desc.c **** /* USER CODE END PRIVATE_DEFINES */
 106:Src/usbd_desc.c **** 
 107:Src/usbd_desc.c **** /**
 108:Src/usbd_desc.c ****   * @}
 109:Src/usbd_desc.c ****   */
 110:Src/usbd_desc.c **** 
 111:Src/usbd_desc.c **** /* USER CODE BEGIN 0 */
 112:Src/usbd_desc.c **** 
 113:Src/usbd_desc.c **** /* USER CODE END 0 */
 114:Src/usbd_desc.c **** 
 115:Src/usbd_desc.c **** /** @defgroup USBD_DESC_Private_Macros USBD_DESC_Private_Macros
 116:Src/usbd_desc.c ****   * @brief Private macros.
 117:Src/usbd_desc.c ****   * @{
 118:Src/usbd_desc.c ****   */
 119:Src/usbd_desc.c **** 
 120:Src/usbd_desc.c **** /* USER CODE BEGIN PRIVATE_MACRO */
 121:Src/usbd_desc.c **** 
 122:Src/usbd_desc.c **** /* USER CODE END PRIVATE_MACRO */
 123:Src/usbd_desc.c **** 
 124:Src/usbd_desc.c **** /**
 125:Src/usbd_desc.c ****   * @}
 126:Src/usbd_desc.c ****   */
 127:Src/usbd_desc.c **** 
 128:Src/usbd_desc.c **** /** @defgroup USBD_DESC_Private_FunctionPrototypes USBD_DESC_Private_FunctionPrototypes
 129:Src/usbd_desc.c ****   * @brief Private functions declaration.
 130:Src/usbd_desc.c ****   * @{
 131:Src/usbd_desc.c ****   */
 132:Src/usbd_desc.c **** 
 133:Src/usbd_desc.c **** uint8_t * USBD_FS_DeviceDescriptor(USBD_SpeedTypeDef speed, uint16_t *length);
 134:Src/usbd_desc.c **** uint8_t * USBD_FS_LangIDStrDescriptor(USBD_SpeedTypeDef speed, uint16_t *length);
 135:Src/usbd_desc.c **** uint8_t * USBD_FS_ManufacturerStrDescriptor(USBD_SpeedTypeDef speed, uint16_t *length);
 136:Src/usbd_desc.c **** uint8_t * USBD_FS_ProductStrDescriptor(USBD_SpeedTypeDef speed, uint16_t *length);
 137:Src/usbd_desc.c **** uint8_t * USBD_FS_SerialStrDescriptor(USBD_SpeedTypeDef speed, uint16_t *length);
 138:Src/usbd_desc.c **** uint8_t * USBD_FS_ConfigStrDescriptor(USBD_SpeedTypeDef speed, uint16_t *length);
 139:Src/usbd_desc.c **** uint8_t * USBD_FS_InterfaceStrDescriptor(USBD_SpeedTypeDef speed, uint16_t *length);
 140:Src/usbd_desc.c **** 
 141:Src/usbd_desc.c **** #ifdef USB_SUPPORT_USER_STRING_DESC
 142:Src/usbd_desc.c **** uint8_t * USBD_FS_USRStringDesc(USBD_SpeedTypeDef speed, uint8_t idx, uint16_t *length);
 143:Src/usbd_desc.c **** #endif /* USB_SUPPORT_USER_STRING_DESC */
 144:Src/usbd_desc.c **** 
 145:Src/usbd_desc.c **** /**
 146:Src/usbd_desc.c ****   * @}
ARM GAS  C:\Users\qqffx\AppData\Local\Temp\ccXdAZGD.s 			page 4


 147:Src/usbd_desc.c ****   */
 148:Src/usbd_desc.c **** 
 149:Src/usbd_desc.c **** /** @defgroup USBD_DESC_Private_Variables USBD_DESC_Private_Variables
 150:Src/usbd_desc.c ****   * @brief Private variables.
 151:Src/usbd_desc.c ****   * @{
 152:Src/usbd_desc.c ****   */
 153:Src/usbd_desc.c **** 
 154:Src/usbd_desc.c **** USBD_DescriptorsTypeDef FS_Desc =
 155:Src/usbd_desc.c **** {
 156:Src/usbd_desc.c ****   USBD_FS_DeviceDescriptor
 157:Src/usbd_desc.c **** , USBD_FS_LangIDStrDescriptor
 158:Src/usbd_desc.c **** , USBD_FS_ManufacturerStrDescriptor
 159:Src/usbd_desc.c **** , USBD_FS_ProductStrDescriptor
 160:Src/usbd_desc.c **** , USBD_FS_SerialStrDescriptor
 161:Src/usbd_desc.c **** , USBD_FS_ConfigStrDescriptor
 162:Src/usbd_desc.c **** , USBD_FS_InterfaceStrDescriptor
 163:Src/usbd_desc.c **** };
 164:Src/usbd_desc.c **** 
 165:Src/usbd_desc.c **** #if defined ( __ICCARM__ ) /* IAR Compiler */
 166:Src/usbd_desc.c ****   #pragma data_alignment=4
 167:Src/usbd_desc.c **** #endif /* defined ( __ICCARM__ ) */
 168:Src/usbd_desc.c **** /** USB standard device descriptor. */
 169:Src/usbd_desc.c **** __ALIGN_BEGIN uint8_t USBD_FS_DeviceDesc[USB_LEN_DEV_DESC] __ALIGN_END =
 170:Src/usbd_desc.c **** {
 171:Src/usbd_desc.c ****   0x12,                       /*bLength */
 172:Src/usbd_desc.c ****   USB_DESC_TYPE_DEVICE,       /*bDescriptorType*/
 173:Src/usbd_desc.c ****   0x00,                       /*bcdUSB */
 174:Src/usbd_desc.c ****   0x02,
 175:Src/usbd_desc.c ****   0x02,                       /*bDeviceClass*/
 176:Src/usbd_desc.c ****   0x02,                       /*bDeviceSubClass*/
 177:Src/usbd_desc.c ****   0x00,                       /*bDeviceProtocol*/
 178:Src/usbd_desc.c ****   USB_MAX_EP0_SIZE,           /*bMaxPacketSize*/
 179:Src/usbd_desc.c ****   LOBYTE(USBD_VID),           /*idVendor*/
 180:Src/usbd_desc.c ****   HIBYTE(USBD_VID),           /*idVendor*/
 181:Src/usbd_desc.c ****   LOBYTE(USBD_PID_FS),        /*idProduct*/
 182:Src/usbd_desc.c ****   HIBYTE(USBD_PID_FS),        /*idProduct*/
 183:Src/usbd_desc.c ****   0x00,                       /*bcdDevice rel. 2.00*/
 184:Src/usbd_desc.c ****   0x02,
 185:Src/usbd_desc.c ****   USBD_IDX_MFC_STR,           /*Index of manufacturer  string*/
 186:Src/usbd_desc.c ****   USBD_IDX_PRODUCT_STR,       /*Index of product string*/
 187:Src/usbd_desc.c ****   USBD_IDX_SERIAL_STR,        /*Index of serial number string*/
 188:Src/usbd_desc.c ****   USBD_MAX_NUM_CONFIGURATION  /*bNumConfigurations*/
 189:Src/usbd_desc.c **** };
 190:Src/usbd_desc.c **** 
 191:Src/usbd_desc.c **** /* USB_DeviceDescriptor */
 192:Src/usbd_desc.c **** 
 193:Src/usbd_desc.c **** /**
 194:Src/usbd_desc.c ****   * @}
 195:Src/usbd_desc.c ****   */
 196:Src/usbd_desc.c **** 
 197:Src/usbd_desc.c **** /** @defgroup USBD_DESC_Private_Variables USBD_DESC_Private_Variables
 198:Src/usbd_desc.c ****   * @brief Private variables.
 199:Src/usbd_desc.c ****   * @{
 200:Src/usbd_desc.c ****   */
 201:Src/usbd_desc.c **** 
 202:Src/usbd_desc.c **** #if defined ( __ICCARM__ ) /* IAR Compiler */
 203:Src/usbd_desc.c ****   #pragma data_alignment=4
ARM GAS  C:\Users\qqffx\AppData\Local\Temp\ccXdAZGD.s 			page 5


 204:Src/usbd_desc.c **** #endif /* defined ( __ICCARM__ ) */
 205:Src/usbd_desc.c **** 
 206:Src/usbd_desc.c **** /** USB lang indentifier descriptor. */
 207:Src/usbd_desc.c **** __ALIGN_BEGIN uint8_t USBD_LangIDDesc[USB_LEN_LANGID_STR_DESC] __ALIGN_END =
 208:Src/usbd_desc.c **** {
 209:Src/usbd_desc.c ****      USB_LEN_LANGID_STR_DESC,
 210:Src/usbd_desc.c ****      USB_DESC_TYPE_STRING,
 211:Src/usbd_desc.c ****      LOBYTE(USBD_LANGID_STRING),
 212:Src/usbd_desc.c ****      HIBYTE(USBD_LANGID_STRING)
 213:Src/usbd_desc.c **** };
 214:Src/usbd_desc.c **** 
 215:Src/usbd_desc.c **** #if defined ( __ICCARM__ ) /* IAR Compiler */
 216:Src/usbd_desc.c ****   #pragma data_alignment=4
 217:Src/usbd_desc.c **** #endif /* defined ( __ICCARM__ ) */
 218:Src/usbd_desc.c **** /* Internal string descriptor. */
 219:Src/usbd_desc.c **** __ALIGN_BEGIN uint8_t USBD_StrDesc[USBD_MAX_STR_DESC_SIZ] __ALIGN_END;
 220:Src/usbd_desc.c **** 
 221:Src/usbd_desc.c **** /**
 222:Src/usbd_desc.c ****   * @}
 223:Src/usbd_desc.c ****   */
 224:Src/usbd_desc.c **** 
 225:Src/usbd_desc.c **** /** @defgroup USBD_DESC_Private_Functions USBD_DESC_Private_Functions
 226:Src/usbd_desc.c ****   * @brief Private functions.
 227:Src/usbd_desc.c ****   * @{
 228:Src/usbd_desc.c ****   */
 229:Src/usbd_desc.c **** 
 230:Src/usbd_desc.c **** /**
 231:Src/usbd_desc.c ****   * @brief  Return the device descriptor
 232:Src/usbd_desc.c ****   * @param  speed : Current device speed
 233:Src/usbd_desc.c ****   * @param  length : Pointer to data length variable
 234:Src/usbd_desc.c ****   * @retval Pointer to descriptor buffer
 235:Src/usbd_desc.c ****   */
 236:Src/usbd_desc.c **** uint8_t * USBD_FS_DeviceDescriptor(USBD_SpeedTypeDef speed, uint16_t *length)
 237:Src/usbd_desc.c **** {
  27              		.loc 1 237 0
  28              		.cfi_startproc
  29              		@ args = 0, pretend = 0, frame = 0
  30              		@ frame_needed = 0, uses_anonymous_args = 0
  31              		@ link register save eliminated.
  32              	.LVL0:
 238:Src/usbd_desc.c ****   *length = sizeof(USBD_FS_DeviceDesc);
  33              		.loc 1 238 0
  34 0000 1223     		movs	r3, #18
  35 0002 0B80     		strh	r3, [r1]	@ movhi
 239:Src/usbd_desc.c ****   return USBD_FS_DeviceDesc;
 240:Src/usbd_desc.c **** }
  36              		.loc 1 240 0
  37 0004 0048     		ldr	r0, .L2
  38              	.LVL1:
  39 0006 7047     		bx	lr
  40              	.L3:
  41              		.align	2
  42              	.L2:
  43 0008 00000000 		.word	.LANCHOR0
  44              		.cfi_endproc
  45              	.LFE137:
  47              		.section	.text.USBD_FS_LangIDStrDescriptor,"ax",%progbits
ARM GAS  C:\Users\qqffx\AppData\Local\Temp\ccXdAZGD.s 			page 6


  48              		.align	1
  49              		.global	USBD_FS_LangIDStrDescriptor
  50              		.syntax unified
  51              		.thumb
  52              		.thumb_func
  53              		.fpu fpv5-d16
  55              	USBD_FS_LangIDStrDescriptor:
  56              	.LFB138:
 241:Src/usbd_desc.c **** 
 242:Src/usbd_desc.c **** /**
 243:Src/usbd_desc.c ****   * @brief  Return the LangID string descriptor
 244:Src/usbd_desc.c ****   * @param  speed : Current device speed
 245:Src/usbd_desc.c ****   * @param  length : Pointer to data length variable
 246:Src/usbd_desc.c ****   * @retval Pointer to descriptor buffer
 247:Src/usbd_desc.c ****   */
 248:Src/usbd_desc.c **** uint8_t * USBD_FS_LangIDStrDescriptor(USBD_SpeedTypeDef speed, uint16_t *length)
 249:Src/usbd_desc.c **** {
  57              		.loc 1 249 0
  58              		.cfi_startproc
  59              		@ args = 0, pretend = 0, frame = 0
  60              		@ frame_needed = 0, uses_anonymous_args = 0
  61              		@ link register save eliminated.
  62              	.LVL2:
 250:Src/usbd_desc.c ****   *length = sizeof(USBD_LangIDDesc);
  63              		.loc 1 250 0
  64 0000 0423     		movs	r3, #4
  65 0002 0B80     		strh	r3, [r1]	@ movhi
 251:Src/usbd_desc.c ****   return USBD_LangIDDesc;
 252:Src/usbd_desc.c **** }
  66              		.loc 1 252 0
  67 0004 0048     		ldr	r0, .L5
  68              	.LVL3:
  69 0006 7047     		bx	lr
  70              	.L6:
  71              		.align	2
  72              	.L5:
  73 0008 00000000 		.word	.LANCHOR1
  74              		.cfi_endproc
  75              	.LFE138:
  77              		.section	.text.USBD_FS_ProductStrDescriptor,"ax",%progbits
  78              		.align	1
  79              		.global	USBD_FS_ProductStrDescriptor
  80              		.syntax unified
  81              		.thumb
  82              		.thumb_func
  83              		.fpu fpv5-d16
  85              	USBD_FS_ProductStrDescriptor:
  86              	.LFB139:
 253:Src/usbd_desc.c **** 
 254:Src/usbd_desc.c **** /**
 255:Src/usbd_desc.c ****   * @brief  Return the product string descriptor
 256:Src/usbd_desc.c ****   * @param  speed : Current device speed
 257:Src/usbd_desc.c ****   * @param  length : Pointer to data length variable
 258:Src/usbd_desc.c ****   * @retval Pointer to descriptor buffer
 259:Src/usbd_desc.c ****   */
 260:Src/usbd_desc.c **** uint8_t * USBD_FS_ProductStrDescriptor(USBD_SpeedTypeDef speed, uint16_t *length)
 261:Src/usbd_desc.c **** {
ARM GAS  C:\Users\qqffx\AppData\Local\Temp\ccXdAZGD.s 			page 7


  87              		.loc 1 261 0
  88              		.cfi_startproc
  89              		@ args = 0, pretend = 0, frame = 0
  90              		@ frame_needed = 0, uses_anonymous_args = 0
  91              	.LVL4:
  92 0000 08B5     		push	{r3, lr}
  93              	.LCFI0:
  94              		.cfi_def_cfa_offset 8
  95              		.cfi_offset 3, -8
  96              		.cfi_offset 14, -4
  97 0002 0A46     		mov	r2, r1
 262:Src/usbd_desc.c ****   if(speed == 0)
  98              		.loc 1 262 0
  99 0004 28B1     		cbz	r0, .L11
 263:Src/usbd_desc.c ****   {
 264:Src/usbd_desc.c ****     USBD_GetString((uint8_t *)USBD_PRODUCT_STRING_FS, USBD_StrDesc, length);
 265:Src/usbd_desc.c ****   }
 266:Src/usbd_desc.c ****   else
 267:Src/usbd_desc.c ****   {
 268:Src/usbd_desc.c ****     USBD_GetString((uint8_t *)USBD_PRODUCT_STRING_FS, USBD_StrDesc, length);
 100              		.loc 1 268 0
 101 0006 0549     		ldr	r1, .L12
 102              	.LVL5:
 103 0008 0548     		ldr	r0, .L12+4
 104              	.LVL6:
 105 000a FFF7FEFF 		bl	USBD_GetString
 106              	.LVL7:
 107              	.L9:
 269:Src/usbd_desc.c ****   }
 270:Src/usbd_desc.c ****   return USBD_StrDesc;
 271:Src/usbd_desc.c **** }
 108              		.loc 1 271 0
 109 000e 0348     		ldr	r0, .L12
 110 0010 08BD     		pop	{r3, pc}
 111              	.LVL8:
 112              	.L11:
 264:Src/usbd_desc.c ****   }
 113              		.loc 1 264 0
 114 0012 0249     		ldr	r1, .L12
 115              	.LVL9:
 116 0014 0248     		ldr	r0, .L12+4
 117              	.LVL10:
 118 0016 FFF7FEFF 		bl	USBD_GetString
 119              	.LVL11:
 120 001a F8E7     		b	.L9
 121              	.L13:
 122              		.align	2
 123              	.L12:
 124 001c 00000000 		.word	USBD_StrDesc
 125 0020 00000000 		.word	.LC0
 126              		.cfi_endproc
 127              	.LFE139:
 129              		.section	.text.USBD_FS_ManufacturerStrDescriptor,"ax",%progbits
 130              		.align	1
 131              		.global	USBD_FS_ManufacturerStrDescriptor
 132              		.syntax unified
 133              		.thumb
ARM GAS  C:\Users\qqffx\AppData\Local\Temp\ccXdAZGD.s 			page 8


 134              		.thumb_func
 135              		.fpu fpv5-d16
 137              	USBD_FS_ManufacturerStrDescriptor:
 138              	.LFB140:
 272:Src/usbd_desc.c **** 
 273:Src/usbd_desc.c **** /**
 274:Src/usbd_desc.c ****   * @brief  Return the manufacturer string descriptor
 275:Src/usbd_desc.c ****   * @param  speed : Current device speed
 276:Src/usbd_desc.c ****   * @param  length : Pointer to data length variable
 277:Src/usbd_desc.c ****   * @retval Pointer to descriptor buffer
 278:Src/usbd_desc.c ****   */
 279:Src/usbd_desc.c **** uint8_t * USBD_FS_ManufacturerStrDescriptor(USBD_SpeedTypeDef speed, uint16_t *length)
 280:Src/usbd_desc.c **** {
 139              		.loc 1 280 0
 140              		.cfi_startproc
 141              		@ args = 0, pretend = 0, frame = 0
 142              		@ frame_needed = 0, uses_anonymous_args = 0
 143              	.LVL12:
 144 0000 10B5     		push	{r4, lr}
 145              	.LCFI1:
 146              		.cfi_def_cfa_offset 8
 147              		.cfi_offset 4, -8
 148              		.cfi_offset 14, -4
 281:Src/usbd_desc.c ****   USBD_GetString((uint8_t *)USBD_MANUFACTURER_STRING, USBD_StrDesc, length);
 149              		.loc 1 281 0
 150 0002 044C     		ldr	r4, .L16
 151 0004 0A46     		mov	r2, r1
 152 0006 2146     		mov	r1, r4
 153              	.LVL13:
 154 0008 0348     		ldr	r0, .L16+4
 155              	.LVL14:
 156 000a FFF7FEFF 		bl	USBD_GetString
 157              	.LVL15:
 282:Src/usbd_desc.c ****   return USBD_StrDesc;
 283:Src/usbd_desc.c **** }
 158              		.loc 1 283 0
 159 000e 2046     		mov	r0, r4
 160 0010 10BD     		pop	{r4, pc}
 161              	.L17:
 162 0012 00BF     		.align	2
 163              	.L16:
 164 0014 00000000 		.word	USBD_StrDesc
 165 0018 00000000 		.word	.LC1
 166              		.cfi_endproc
 167              	.LFE140:
 169              		.section	.text.USBD_FS_SerialStrDescriptor,"ax",%progbits
 170              		.align	1
 171              		.global	USBD_FS_SerialStrDescriptor
 172              		.syntax unified
 173              		.thumb
 174              		.thumb_func
 175              		.fpu fpv5-d16
 177              	USBD_FS_SerialStrDescriptor:
 178              	.LFB141:
 284:Src/usbd_desc.c **** 
 285:Src/usbd_desc.c **** /**
 286:Src/usbd_desc.c ****   * @brief  Return the serial number string descriptor
ARM GAS  C:\Users\qqffx\AppData\Local\Temp\ccXdAZGD.s 			page 9


 287:Src/usbd_desc.c ****   * @param  speed : Current device speed
 288:Src/usbd_desc.c ****   * @param  length : Pointer to data length variable
 289:Src/usbd_desc.c ****   * @retval Pointer to descriptor buffer
 290:Src/usbd_desc.c ****   */
 291:Src/usbd_desc.c **** uint8_t * USBD_FS_SerialStrDescriptor(USBD_SpeedTypeDef speed, uint16_t *length)
 292:Src/usbd_desc.c **** {
 179              		.loc 1 292 0
 180              		.cfi_startproc
 181              		@ args = 0, pretend = 0, frame = 0
 182              		@ frame_needed = 0, uses_anonymous_args = 0
 183              	.LVL16:
 184 0000 08B5     		push	{r3, lr}
 185              	.LCFI2:
 186              		.cfi_def_cfa_offset 8
 187              		.cfi_offset 3, -8
 188              		.cfi_offset 14, -4
 189 0002 0A46     		mov	r2, r1
 293:Src/usbd_desc.c ****   if(speed == USBD_SPEED_HIGH)
 190              		.loc 1 293 0
 191 0004 28B1     		cbz	r0, .L22
 294:Src/usbd_desc.c ****   {
 295:Src/usbd_desc.c ****     USBD_GetString((uint8_t *)USBD_SERIALNUMBER_STRING_FS, USBD_StrDesc, length);
 296:Src/usbd_desc.c ****   }
 297:Src/usbd_desc.c ****   else
 298:Src/usbd_desc.c ****   {
 299:Src/usbd_desc.c ****     USBD_GetString((uint8_t *)USBD_SERIALNUMBER_STRING_FS, USBD_StrDesc, length);
 192              		.loc 1 299 0
 193 0006 0549     		ldr	r1, .L23
 194              	.LVL17:
 195 0008 0548     		ldr	r0, .L23+4
 196              	.LVL18:
 197 000a FFF7FEFF 		bl	USBD_GetString
 198              	.LVL19:
 199              	.L20:
 300:Src/usbd_desc.c ****   }
 301:Src/usbd_desc.c ****   return USBD_StrDesc;
 302:Src/usbd_desc.c **** }
 200              		.loc 1 302 0
 201 000e 0348     		ldr	r0, .L23
 202 0010 08BD     		pop	{r3, pc}
 203              	.LVL20:
 204              	.L22:
 295:Src/usbd_desc.c ****   }
 205              		.loc 1 295 0
 206 0012 0249     		ldr	r1, .L23
 207              	.LVL21:
 208 0014 0248     		ldr	r0, .L23+4
 209              	.LVL22:
 210 0016 FFF7FEFF 		bl	USBD_GetString
 211              	.LVL23:
 212 001a F8E7     		b	.L20
 213              	.L24:
 214              		.align	2
 215              	.L23:
 216 001c 00000000 		.word	USBD_StrDesc
 217 0020 00000000 		.word	.LC2
 218              		.cfi_endproc
ARM GAS  C:\Users\qqffx\AppData\Local\Temp\ccXdAZGD.s 			page 10


 219              	.LFE141:
 221              		.section	.text.USBD_FS_ConfigStrDescriptor,"ax",%progbits
 222              		.align	1
 223              		.global	USBD_FS_ConfigStrDescriptor
 224              		.syntax unified
 225              		.thumb
 226              		.thumb_func
 227              		.fpu fpv5-d16
 229              	USBD_FS_ConfigStrDescriptor:
 230              	.LFB142:
 303:Src/usbd_desc.c **** 
 304:Src/usbd_desc.c **** /**
 305:Src/usbd_desc.c ****   * @brief  Return the configuration string descriptor
 306:Src/usbd_desc.c ****   * @param  speed : Current device speed
 307:Src/usbd_desc.c ****   * @param  length : Pointer to data length variable
 308:Src/usbd_desc.c ****   * @retval Pointer to descriptor buffer
 309:Src/usbd_desc.c ****   */
 310:Src/usbd_desc.c **** uint8_t * USBD_FS_ConfigStrDescriptor(USBD_SpeedTypeDef speed, uint16_t *length)
 311:Src/usbd_desc.c **** {
 231              		.loc 1 311 0
 232              		.cfi_startproc
 233              		@ args = 0, pretend = 0, frame = 0
 234              		@ frame_needed = 0, uses_anonymous_args = 0
 235              	.LVL24:
 236 0000 08B5     		push	{r3, lr}
 237              	.LCFI3:
 238              		.cfi_def_cfa_offset 8
 239              		.cfi_offset 3, -8
 240              		.cfi_offset 14, -4
 241 0002 0A46     		mov	r2, r1
 312:Src/usbd_desc.c ****   if(speed == USBD_SPEED_HIGH)
 242              		.loc 1 312 0
 243 0004 28B1     		cbz	r0, .L29
 313:Src/usbd_desc.c ****   {
 314:Src/usbd_desc.c ****     USBD_GetString((uint8_t *)USBD_CONFIGURATION_STRING_FS, USBD_StrDesc, length);
 315:Src/usbd_desc.c ****   }
 316:Src/usbd_desc.c ****   else
 317:Src/usbd_desc.c ****   {
 318:Src/usbd_desc.c ****     USBD_GetString((uint8_t *)USBD_CONFIGURATION_STRING_FS, USBD_StrDesc, length);
 244              		.loc 1 318 0
 245 0006 0549     		ldr	r1, .L30
 246              	.LVL25:
 247 0008 0548     		ldr	r0, .L30+4
 248              	.LVL26:
 249 000a FFF7FEFF 		bl	USBD_GetString
 250              	.LVL27:
 251              	.L27:
 319:Src/usbd_desc.c ****   }
 320:Src/usbd_desc.c ****   return USBD_StrDesc;
 321:Src/usbd_desc.c **** }
 252              		.loc 1 321 0
 253 000e 0348     		ldr	r0, .L30
 254 0010 08BD     		pop	{r3, pc}
 255              	.LVL28:
 256              	.L29:
 314:Src/usbd_desc.c ****   }
 257              		.loc 1 314 0
ARM GAS  C:\Users\qqffx\AppData\Local\Temp\ccXdAZGD.s 			page 11


 258 0012 0249     		ldr	r1, .L30
 259              	.LVL29:
 260 0014 0248     		ldr	r0, .L30+4
 261              	.LVL30:
 262 0016 FFF7FEFF 		bl	USBD_GetString
 263              	.LVL31:
 264 001a F8E7     		b	.L27
 265              	.L31:
 266              		.align	2
 267              	.L30:
 268 001c 00000000 		.word	USBD_StrDesc
 269 0020 00000000 		.word	.LC3
 270              		.cfi_endproc
 271              	.LFE142:
 273              		.section	.text.USBD_FS_InterfaceStrDescriptor,"ax",%progbits
 274              		.align	1
 275              		.global	USBD_FS_InterfaceStrDescriptor
 276              		.syntax unified
 277              		.thumb
 278              		.thumb_func
 279              		.fpu fpv5-d16
 281              	USBD_FS_InterfaceStrDescriptor:
 282              	.LFB143:
 322:Src/usbd_desc.c **** 
 323:Src/usbd_desc.c **** /**
 324:Src/usbd_desc.c ****   * @brief  Return the interface string descriptor
 325:Src/usbd_desc.c ****   * @param  speed : Current device speed
 326:Src/usbd_desc.c ****   * @param  length : Pointer to data length variable
 327:Src/usbd_desc.c ****   * @retval Pointer to descriptor buffer
 328:Src/usbd_desc.c ****   */
 329:Src/usbd_desc.c **** uint8_t * USBD_FS_InterfaceStrDescriptor(USBD_SpeedTypeDef speed, uint16_t *length)
 330:Src/usbd_desc.c **** {
 283              		.loc 1 330 0
 284              		.cfi_startproc
 285              		@ args = 0, pretend = 0, frame = 0
 286              		@ frame_needed = 0, uses_anonymous_args = 0
 287              	.LVL32:
 288 0000 08B5     		push	{r3, lr}
 289              	.LCFI4:
 290              		.cfi_def_cfa_offset 8
 291              		.cfi_offset 3, -8
 292              		.cfi_offset 14, -4
 293 0002 0A46     		mov	r2, r1
 331:Src/usbd_desc.c ****   if(speed == 0)
 294              		.loc 1 331 0
 295 0004 28B1     		cbz	r0, .L36
 332:Src/usbd_desc.c ****   {
 333:Src/usbd_desc.c ****     USBD_GetString((uint8_t *)USBD_INTERFACE_STRING_FS, USBD_StrDesc, length);
 334:Src/usbd_desc.c ****   }
 335:Src/usbd_desc.c ****   else
 336:Src/usbd_desc.c ****   {
 337:Src/usbd_desc.c ****     USBD_GetString((uint8_t *)USBD_INTERFACE_STRING_FS, USBD_StrDesc, length);
 296              		.loc 1 337 0
 297 0006 0549     		ldr	r1, .L37
 298              	.LVL33:
 299 0008 0548     		ldr	r0, .L37+4
 300              	.LVL34:
ARM GAS  C:\Users\qqffx\AppData\Local\Temp\ccXdAZGD.s 			page 12


 301 000a FFF7FEFF 		bl	USBD_GetString
 302              	.LVL35:
 303              	.L34:
 338:Src/usbd_desc.c ****   }
 339:Src/usbd_desc.c ****   return USBD_StrDesc;
 340:Src/usbd_desc.c **** }
 304              		.loc 1 340 0
 305 000e 0348     		ldr	r0, .L37
 306 0010 08BD     		pop	{r3, pc}
 307              	.LVL36:
 308              	.L36:
 333:Src/usbd_desc.c ****   }
 309              		.loc 1 333 0
 310 0012 0249     		ldr	r1, .L37
 311              	.LVL37:
 312 0014 0248     		ldr	r0, .L37+4
 313              	.LVL38:
 314 0016 FFF7FEFF 		bl	USBD_GetString
 315              	.LVL39:
 316 001a F8E7     		b	.L34
 317              	.L38:
 318              		.align	2
 319              	.L37:
 320 001c 00000000 		.word	USBD_StrDesc
 321 0020 00000000 		.word	.LC4
 322              		.cfi_endproc
 323              	.LFE143:
 325              		.comm	USBD_StrDesc,512,4
 326              		.global	USBD_LangIDDesc
 327              		.global	USBD_FS_DeviceDesc
 328              		.global	FS_Desc
 329              		.section	.data.FS_Desc,"aw",%progbits
 330              		.align	2
 333              	FS_Desc:
 334 0000 00000000 		.word	USBD_FS_DeviceDescriptor
 335 0004 00000000 		.word	USBD_FS_LangIDStrDescriptor
 336 0008 00000000 		.word	USBD_FS_ManufacturerStrDescriptor
 337 000c 00000000 		.word	USBD_FS_ProductStrDescriptor
 338 0010 00000000 		.word	USBD_FS_SerialStrDescriptor
 339 0014 00000000 		.word	USBD_FS_ConfigStrDescriptor
 340 0018 00000000 		.word	USBD_FS_InterfaceStrDescriptor
 341              		.section	.data.USBD_FS_DeviceDesc,"aw",%progbits
 342              		.align	2
 343              		.set	.LANCHOR0,. + 0
 346              	USBD_FS_DeviceDesc:
 347 0000 12       		.byte	18
 348 0001 01       		.byte	1
 349 0002 00       		.byte	0
 350 0003 02       		.byte	2
 351 0004 02       		.byte	2
 352 0005 02       		.byte	2
 353 0006 00       		.byte	0
 354 0007 40       		.byte	64
 355 0008 83       		.byte	-125
 356 0009 04       		.byte	4
 357 000a 40       		.byte	64
 358 000b 57       		.byte	87
ARM GAS  C:\Users\qqffx\AppData\Local\Temp\ccXdAZGD.s 			page 13


 359 000c 00       		.byte	0
 360 000d 02       		.byte	2
 361 000e 01       		.byte	1
 362 000f 02       		.byte	2
 363 0010 03       		.byte	3
 364 0011 01       		.byte	1
 365              		.section	.data.USBD_LangIDDesc,"aw",%progbits
 366              		.align	2
 367              		.set	.LANCHOR1,. + 0
 370              	USBD_LangIDDesc:
 371 0000 04       		.byte	4
 372 0001 03       		.byte	3
 373 0002 09       		.byte	9
 374 0003 04       		.byte	4
 375              		.section	.rodata.USBD_FS_ConfigStrDescriptor.str1.4,"aMS",%progbits,1
 376              		.align	2
 377              	.LC3:
 378 0000 43444320 		.ascii	"CDC Config\000"
 378      436F6E66 
 378      696700
 379              		.section	.rodata.USBD_FS_InterfaceStrDescriptor.str1.4,"aMS",%progbits,1
 380              		.align	2
 381              	.LC4:
 382 0000 43444320 		.ascii	"CDC Interface\000"
 382      496E7465 
 382      72666163 
 382      6500
 383              		.section	.rodata.USBD_FS_ManufacturerStrDescriptor.str1.4,"aMS",%progbits,1
 384              		.align	2
 385              	.LC1:
 386 0000 53544D69 		.ascii	"STMicroelectronics\000"
 386      63726F65 
 386      6C656374 
 386      726F6E69 
 386      637300
 387              		.section	.rodata.USBD_FS_ProductStrDescriptor.str1.4,"aMS",%progbits,1
 388              		.align	2
 389              	.LC0:
 390 0000 53544D33 		.ascii	"STM32 Virtual ComPort\000"
 390      32205669 
 390      72747561 
 390      6C20436F 
 390      6D506F72 
 391              		.section	.rodata.USBD_FS_SerialStrDescriptor.str1.4,"aMS",%progbits,1
 392              		.align	2
 393              	.LC2:
 394 0000 30303030 		.ascii	"00000000001A\000"
 394      30303030 
 394      30303141 
 394      00
 395              		.text
 396              	.Letext0:
 397              		.file 2 "c:\\gcc\\arm-none-eabi\\include\\machine\\_default_types.h"
 398              		.file 3 "c:\\gcc\\arm-none-eabi\\include\\sys\\lock.h"
 399              		.file 4 "c:\\gcc\\arm-none-eabi\\include\\sys\\_types.h"
 400              		.file 5 "c:\\gcc\\lib\\gcc\\arm-none-eabi\\7.3.1\\include\\stddef.h"
 401              		.file 6 "c:\\gcc\\arm-none-eabi\\include\\sys\\reent.h"
ARM GAS  C:\Users\qqffx\AppData\Local\Temp\ccXdAZGD.s 			page 14


 402              		.file 7 "c:\\gcc\\arm-none-eabi\\include\\sys\\_stdint.h"
 403              		.file 8 "c:\\gcc\\arm-none-eabi\\include\\stdlib.h"
 404              		.file 9 "Drivers/CMSIS/Include/core_cm7.h"
 405              		.file 10 "Drivers/CMSIS/Device/ST/STM32H7xx/Include/system_stm32h7xx.h"
 406              		.file 11 "Middlewares/ST/STM32_USB_Device_Library/Core/Inc/usbd_def.h"
 407              		.file 12 "Inc/usbd_desc.h"
 408              		.file 13 "Drivers/STM32H7xx_HAL_Driver/Inc/stm32h7xx_hal_uart.h"
 409              		.file 14 "Middlewares/ST/STM32_USB_Device_Library/Core/Inc/usbd_ctlreq.h"
ARM GAS  C:\Users\qqffx\AppData\Local\Temp\ccXdAZGD.s 			page 15

